
build/windows/microConsole.exe:     file format pei-x86-64


Disassembly of section .text:

0000000140001000 <__mingw_invalidParameterHandler>:
   140001000:	c3                   	ret
   140001001:	66 66 2e 0f 1f 84 00 	data16 cs nopw 0x0(%rax,%rax,1)
   140001008:	00 00 00 00 
   14000100c:	0f 1f 40 00          	nopl   0x0(%rax)

0000000140001010 <pre_c_init>:
   140001010:	48 83 ec 28          	sub    $0x28,%rsp
   140001014:	48 8b 05 65 8d 00 00 	mov    0x8d65(%rip),%rax        # 140009d80 <.refptr.__mingw_initltsdrot_force>
   14000101b:	31 c9                	xor    %ecx,%ecx
   14000101d:	c7 00 01 00 00 00    	movl   $0x1,(%rax)
   140001023:	48 8b 05 66 8d 00 00 	mov    0x8d66(%rip),%rax        # 140009d90 <.refptr.__mingw_initltsdyn_force>
   14000102a:	c7 00 01 00 00 00    	movl   $0x1,(%rax)
   140001030:	48 8b 05 69 8d 00 00 	mov    0x8d69(%rip),%rax        # 140009da0 <.refptr.__mingw_initltssuo_force>
   140001037:	c7 00 01 00 00 00    	movl   $0x1,(%rax)
   14000103d:	48 8b 05 dc 8c 00 00 	mov    0x8cdc(%rip),%rax        # 140009d20 <.refptr.__ImageBase>
   140001044:	66 81 38 4d 5a       	cmpw   $0x5a4d,(%rax)
   140001049:	75 0f                	jne    14000105a <pre_c_init+0x4a>
   14000104b:	48 63 50 3c          	movslq 0x3c(%rax),%rdx
   14000104f:	48 01 d0             	add    %rdx,%rax
   140001052:	81 38 50 45 00 00    	cmpl   $0x4550,(%rax)
   140001058:	74 66                	je     1400010c0 <pre_c_init+0xb0>
   14000105a:	48 8b 05 0f 8d 00 00 	mov    0x8d0f(%rip),%rax        # 140009d70 <.refptr.__mingw_app_type>
   140001061:	89 0d a1 bf 00 00    	mov    %ecx,0xbfa1(%rip)        # 14000d008 <managedapp>
   140001067:	8b 00                	mov    (%rax),%eax
   140001069:	85 c0                	test   %eax,%eax
   14000106b:	74 43                	je     1400010b0 <pre_c_init+0xa0>
   14000106d:	b9 02 00 00 00       	mov    $0x2,%ecx
   140001072:	e8 c9 4d 00 00       	call   140005e40 <__set_app_type>
   140001077:	e8 24 4d 00 00       	call   140005da0 <__p__fmode>
   14000107c:	48 8b 15 bd 8d 00 00 	mov    0x8dbd(%rip),%rdx        # 140009e40 <.refptr._fmode>
   140001083:	8b 12                	mov    (%rdx),%edx
   140001085:	89 10                	mov    %edx,(%rax)
   140001087:	e8 0c 4d 00 00       	call   140005d98 <__p__commode>
   14000108c:	48 8b 15 8d 8d 00 00 	mov    0x8d8d(%rip),%rdx        # 140009e20 <.refptr._commode>
   140001093:	8b 12                	mov    (%rdx),%edx
   140001095:	89 10                	mov    %edx,(%rax)
   140001097:	e8 b4 3a 00 00       	call   140004b50 <_setargv>
   14000109c:	48 8b 05 5d 8c 00 00 	mov    0x8c5d(%rip),%rax        # 140009d00 <.refptr._MINGW_INSTALL_DEBUG_MATHERR>
   1400010a3:	83 38 01             	cmpl   $0x1,(%rax)
   1400010a6:	74 50                	je     1400010f8 <pre_c_init+0xe8>
   1400010a8:	31 c0                	xor    %eax,%eax
   1400010aa:	48 83 c4 28          	add    $0x28,%rsp
   1400010ae:	c3                   	ret
   1400010af:	90                   	nop
   1400010b0:	b9 01 00 00 00       	mov    $0x1,%ecx
   1400010b5:	e8 86 4d 00 00       	call   140005e40 <__set_app_type>
   1400010ba:	eb bb                	jmp    140001077 <pre_c_init+0x67>
   1400010bc:	0f 1f 40 00          	nopl   0x0(%rax)
   1400010c0:	0f b7 50 18          	movzwl 0x18(%rax),%edx
   1400010c4:	66 81 fa 0b 01       	cmp    $0x10b,%dx
   1400010c9:	74 45                	je     140001110 <pre_c_init+0x100>
   1400010cb:	66 81 fa 0b 02       	cmp    $0x20b,%dx
   1400010d0:	75 88                	jne    14000105a <pre_c_init+0x4a>
   1400010d2:	83 b8 84 00 00 00 0e 	cmpl   $0xe,0x84(%rax)
   1400010d9:	0f 86 7b ff ff ff    	jbe    14000105a <pre_c_init+0x4a>
   1400010df:	8b 90 f8 00 00 00    	mov    0xf8(%rax),%edx
   1400010e5:	31 c9                	xor    %ecx,%ecx
   1400010e7:	85 d2                	test   %edx,%edx
   1400010e9:	0f 95 c1             	setne  %cl
   1400010ec:	e9 69 ff ff ff       	jmp    14000105a <pre_c_init+0x4a>
   1400010f1:	0f 1f 80 00 00 00 00 	nopl   0x0(%rax)
   1400010f8:	48 8b 0d 61 8d 00 00 	mov    0x8d61(%rip),%rcx        # 140009e60 <.refptr._matherr>
   1400010ff:	e8 ac 41 00 00       	call   1400052b0 <__mingw_setusermatherr>
   140001104:	31 c0                	xor    %eax,%eax
   140001106:	48 83 c4 28          	add    $0x28,%rsp
   14000110a:	c3                   	ret
   14000110b:	0f 1f 44 00 00       	nopl   0x0(%rax,%rax,1)
   140001110:	83 78 74 0e          	cmpl   $0xe,0x74(%rax)
   140001114:	0f 86 40 ff ff ff    	jbe    14000105a <pre_c_init+0x4a>
   14000111a:	44 8b 80 e8 00 00 00 	mov    0xe8(%rax),%r8d
   140001121:	31 c9                	xor    %ecx,%ecx
   140001123:	45 85 c0             	test   %r8d,%r8d
   140001126:	0f 95 c1             	setne  %cl
   140001129:	e9 2c ff ff ff       	jmp    14000105a <pre_c_init+0x4a>
   14000112e:	66 90                	xchg   %ax,%ax

0000000140001130 <pre_cpp_init>:
   140001130:	48 83 ec 48          	sub    $0x48,%rsp
   140001134:	48 8b 05 35 8d 00 00 	mov    0x8d35(%rip),%rax        # 140009e70 <.refptr._newmode>
   14000113b:	4c 8d 05 ce be 00 00 	lea    0xbece(%rip),%r8        # 14000d010 <envp>
   140001142:	48 8d 15 cf be 00 00 	lea    0xbecf(%rip),%rdx        # 14000d018 <argv>
   140001149:	48 8d 0d d0 be 00 00 	lea    0xbed0(%rip),%rcx        # 14000d020 <argc>
   140001150:	8b 00                	mov    (%rax),%eax
   140001152:	89 44 24 3c          	mov    %eax,0x3c(%rsp)
   140001156:	48 8b 05 d3 8c 00 00 	mov    0x8cd3(%rip),%rax        # 140009e30 <.refptr._dowildcard>
   14000115d:	44 8b 08             	mov    (%rax),%r9d
   140001160:	48 8d 44 24 3c       	lea    0x3c(%rsp),%rax
   140001165:	48 89 44 24 20       	mov    %rax,0x20(%rsp)
   14000116a:	e8 b1 4b 00 00       	call   140005d20 <__getmainargs>
   14000116f:	90                   	nop
   140001170:	48 83 c4 48          	add    $0x48,%rsp
   140001174:	c3                   	ret
   140001175:	66 66 2e 0f 1f 84 00 	data16 cs nopw 0x0(%rax,%rax,1)
   14000117c:	00 00 00 00 

0000000140001180 <__tmainCRTStartup>:
   140001180:	41 54                	push   %r12
   140001182:	55                   	push   %rbp
   140001183:	57                   	push   %rdi
   140001184:	56                   	push   %rsi
   140001185:	53                   	push   %rbx
   140001186:	48 83 ec 20          	sub    $0x20,%rsp
   14000118a:	b8 30 00 00 00       	mov    $0x30,%eax
   14000118f:	65 67 48 8b 00       	mov    %gs:(%eax),%rax
   140001194:	48 8b 70 08          	mov    0x8(%rax),%rsi
   140001198:	48 8b 1d 21 8c 00 00 	mov    0x8c21(%rip),%rbx        # 140009dc0 <.refptr.__native_startup_lock>
   14000119f:	48 8b 3d 72 f1 00 00 	mov    0xf172(%rip),%rdi        # 140010318 <__imp_Sleep>
   1400011a6:	eb 18                	jmp    1400011c0 <__tmainCRTStartup+0x40>
   1400011a8:	0f 1f 84 00 00 00 00 	nopl   0x0(%rax,%rax,1)
   1400011af:	00 
   1400011b0:	48 39 c6             	cmp    %rax,%rsi
   1400011b3:	0f 84 5f 01 00 00    	je     140001318 <__tmainCRTStartup+0x198>
   1400011b9:	b9 e8 03 00 00       	mov    $0x3e8,%ecx
   1400011be:	ff d7                	call   *%rdi
   1400011c0:	31 c0                	xor    %eax,%eax
   1400011c2:	f0 48 0f b1 33       	lock cmpxchg %rsi,(%rbx)
   1400011c7:	75 e7                	jne    1400011b0 <__tmainCRTStartup+0x30>
   1400011c9:	31 ff                	xor    %edi,%edi
   1400011cb:	48 8b 35 fe 8b 00 00 	mov    0x8bfe(%rip),%rsi        # 140009dd0 <.refptr.__native_startup_state>
   1400011d2:	8b 06                	mov    (%rsi),%eax
   1400011d4:	83 f8 01             	cmp    $0x1,%eax
   1400011d7:	0f 84 ca 01 00 00    	je     1400013a7 <__tmainCRTStartup+0x227>
   1400011dd:	8b 06                	mov    (%rsi),%eax
   1400011df:	85 c0                	test   %eax,%eax
   1400011e1:	0f 84 69 01 00 00    	je     140001350 <__tmainCRTStartup+0x1d0>
   1400011e7:	c7 05 13 be 00 00 01 	movl   $0x1,0xbe13(%rip)        # 14000d004 <has_cctor>
   1400011ee:	00 00 00 
   1400011f1:	8b 06                	mov    (%rsi),%eax
   1400011f3:	83 f8 01             	cmp    $0x1,%eax
   1400011f6:	0f 84 78 01 00 00    	je     140001374 <__tmainCRTStartup+0x1f4>
   1400011fc:	85 ff                	test   %edi,%edi
   1400011fe:	0f 84 3c 01 00 00    	je     140001340 <__tmainCRTStartup+0x1c0>
   140001204:	48 8b 05 45 8b 00 00 	mov    0x8b45(%rip),%rax        # 140009d50 <.refptr.__dyn_tls_init_callback>
   14000120b:	48 8b 00             	mov    (%rax),%rax
   14000120e:	48 85 c0             	test   %rax,%rax
   140001211:	74 0c                	je     14000121f <__tmainCRTStartup+0x9f>
   140001213:	45 31 c0             	xor    %r8d,%r8d
   140001216:	ba 02 00 00 00       	mov    $0x2,%edx
   14000121b:	31 c9                	xor    %ecx,%ecx
   14000121d:	ff d0                	call   *%rax
   14000121f:	e8 dc 3c 00 00       	call   140004f00 <_pei386_runtime_relocator>
   140001224:	48 8b 0d 25 8c 00 00 	mov    0x8c25(%rip),%rcx        # 140009e50 <.refptr._gnu_exception_handler>
   14000122b:	ff 15 df f0 00 00    	call   *0xf0df(%rip)        # 140010310 <__imp_SetUnhandledExceptionFilter>
   140001231:	48 8b 15 78 8b 00 00 	mov    0x8b78(%rip),%rdx        # 140009db0 <.refptr.__mingw_oldexcpt_handler>
   140001238:	48 8d 0d c1 fd ff ff 	lea    -0x23f(%rip),%rcx        # 140001000 <__mingw_invalidParameterHandler>
   14000123f:	48 89 02             	mov    %rax,(%rdx)
   140001242:	e8 01 4c 00 00       	call   140005e48 <_set_invalid_parameter_handler>
   140001247:	e8 c4 3a 00 00       	call   140004d10 <_fpreset>
   14000124c:	8b 1d ce bd 00 00    	mov    0xbdce(%rip),%ebx        # 14000d020 <argc>
   140001252:	8d 7b 01             	lea    0x1(%rbx),%edi
   140001255:	48 63 ff             	movslq %edi,%rdi
   140001258:	48 c1 e7 03          	shl    $0x3,%rdi
   14000125c:	48 89 f9             	mov    %rdi,%rcx
   14000125f:	e8 44 4c 00 00       	call   140005ea8 <malloc>
   140001264:	4c 8b 25 ad bd 00 00 	mov    0xbdad(%rip),%r12        # 14000d018 <argv>
   14000126b:	48 89 c5             	mov    %rax,%rbp
   14000126e:	85 db                	test   %ebx,%ebx
   140001270:	0f 8e 22 01 00 00    	jle    140001398 <__tmainCRTStartup+0x218>
   140001276:	48 83 ef 08          	sub    $0x8,%rdi
   14000127a:	31 db                	xor    %ebx,%ebx
   14000127c:	0f 1f 40 00          	nopl   0x0(%rax)
   140001280:	49 8b 0c 1c          	mov    (%r12,%rbx,1),%rcx
   140001284:	e8 f7 4a 00 00       	call   140005d80 <strlen>
   140001289:	48 8d 70 01          	lea    0x1(%rax),%rsi
   14000128d:	48 89 f1             	mov    %rsi,%rcx
   140001290:	e8 13 4c 00 00       	call   140005ea8 <malloc>
   140001295:	49 89 f0             	mov    %rsi,%r8
   140001298:	48 89 44 1d 00       	mov    %rax,0x0(%rbp,%rbx,1)
   14000129d:	49 8b 14 1c          	mov    (%r12,%rbx,1),%rdx
   1400012a1:	48 89 c1             	mov    %rax,%rcx
   1400012a4:	48 83 c3 08          	add    $0x8,%rbx
   1400012a8:	e8 cb 4b 00 00       	call   140005e78 <memcpy>
   1400012ad:	48 39 df             	cmp    %rbx,%rdi
   1400012b0:	75 ce                	jne    140001280 <__tmainCRTStartup+0x100>
   1400012b2:	48 01 ef             	add    %rbp,%rdi
   1400012b5:	48 c7 07 00 00 00 00 	movq   $0x0,(%rdi)
   1400012bc:	48 89 2d 55 bd 00 00 	mov    %rbp,0xbd55(%rip)        # 14000d018 <argv>
   1400012c3:	e8 68 38 00 00       	call   140004b30 <__main>
   1400012c8:	e8 13 4a 00 00       	call   140005ce0 <__p___initenv>
   1400012cd:	4c 8b 05 3c bd 00 00 	mov    0xbd3c(%rip),%r8        # 14000d010 <envp>
   1400012d4:	8b 0d 46 bd 00 00    	mov    0xbd46(%rip),%ecx        # 14000d020 <argc>
   1400012da:	4c 89 00             	mov    %r8,(%rax)
   1400012dd:	48 8b 15 34 bd 00 00 	mov    0xbd34(%rip),%rdx        # 14000d018 <argv>
   1400012e4:	e8 47 01 00 00       	call   140001430 <main>
   1400012e9:	8b 0d 19 bd 00 00    	mov    0xbd19(%rip),%ecx        # 14000d008 <managedapp>
   1400012ef:	89 05 17 bd 00 00    	mov    %eax,0xbd17(%rip)        # 14000d00c <mainret>
   1400012f5:	85 c9                	test   %ecx,%ecx
   1400012f7:	0f 84 a3 00 00 00    	je     1400013a0 <__tmainCRTStartup+0x220>
   1400012fd:	8b 15 01 bd 00 00    	mov    0xbd01(%rip),%edx        # 14000d004 <has_cctor>
   140001303:	85 d2                	test   %edx,%edx
   140001305:	74 21                	je     140001328 <__tmainCRTStartup+0x1a8>
   140001307:	48 83 c4 20          	add    $0x20,%rsp
   14000130b:	5b                   	pop    %rbx
   14000130c:	5e                   	pop    %rsi
   14000130d:	5f                   	pop    %rdi
   14000130e:	5d                   	pop    %rbp
   14000130f:	41 5c                	pop    %r12
   140001311:	c3                   	ret
   140001312:	66 0f 1f 44 00 00    	nopw   0x0(%rax,%rax,1)
   140001318:	bf 01 00 00 00       	mov    $0x1,%edi
   14000131d:	e9 a9 fe ff ff       	jmp    1400011cb <__tmainCRTStartup+0x4b>
   140001322:	66 0f 1f 44 00 00    	nopw   0x0(%rax,%rax,1)
   140001328:	e8 e3 4a 00 00       	call   140005e10 <_cexit>
   14000132d:	8b 05 d9 bc 00 00    	mov    0xbcd9(%rip),%eax        # 14000d00c <mainret>
   140001333:	48 83 c4 20          	add    $0x20,%rsp
   140001337:	5b                   	pop    %rbx
   140001338:	5e                   	pop    %rsi
   140001339:	5f                   	pop    %rdi
   14000133a:	5d                   	pop    %rbp
   14000133b:	41 5c                	pop    %r12
   14000133d:	c3                   	ret
   14000133e:	66 90                	xchg   %ax,%ax
   140001340:	31 c0                	xor    %eax,%eax
   140001342:	48 87 03             	xchg   %rax,(%rbx)
   140001345:	e9 ba fe ff ff       	jmp    140001204 <__tmainCRTStartup+0x84>
   14000134a:	66 0f 1f 44 00 00    	nopw   0x0(%rax,%rax,1)
   140001350:	48 8b 15 b9 8a 00 00 	mov    0x8ab9(%rip),%rdx        # 140009e10 <.refptr.__xi_z>
   140001357:	48 8b 0d a2 8a 00 00 	mov    0x8aa2(%rip),%rcx        # 140009e00 <.refptr.__xi_a>
   14000135e:	c7 06 01 00 00 00    	movl   $0x1,(%rsi)
   140001364:	e8 cf 4a 00 00       	call   140005e38 <_initterm>
   140001369:	8b 06                	mov    (%rsi),%eax
   14000136b:	83 f8 01             	cmp    $0x1,%eax
   14000136e:	0f 85 88 fe ff ff    	jne    1400011fc <__tmainCRTStartup+0x7c>
   140001374:	48 8b 15 75 8a 00 00 	mov    0x8a75(%rip),%rdx        # 140009df0 <.refptr.__xc_z>
   14000137b:	48 8b 0d 5e 8a 00 00 	mov    0x8a5e(%rip),%rcx        # 140009de0 <.refptr.__xc_a>
   140001382:	e8 b1 4a 00 00       	call   140005e38 <_initterm>
   140001387:	c7 06 02 00 00 00    	movl   $0x2,(%rsi)
   14000138d:	e9 6a fe ff ff       	jmp    1400011fc <__tmainCRTStartup+0x7c>
   140001392:	66 0f 1f 44 00 00    	nopw   0x0(%rax,%rax,1)
   140001398:	48 89 c7             	mov    %rax,%rdi
   14000139b:	e9 15 ff ff ff       	jmp    1400012b5 <__tmainCRTStartup+0x135>
   1400013a0:	89 c1                	mov    %eax,%ecx
   1400013a2:	e8 b1 4a 00 00       	call   140005e58 <exit>
   1400013a7:	b9 1f 00 00 00       	mov    $0x1f,%ecx
   1400013ac:	e8 3f 49 00 00       	call   140005cf0 <_amsg_exit>
   1400013b1:	90                   	nop
   1400013b2:	66 66 2e 0f 1f 84 00 	data16 cs nopw 0x0(%rax,%rax,1)
   1400013b9:	00 00 00 00 
   1400013bd:	0f 1f 00             	nopl   (%rax)

00000001400013c0 <WinMainCRTStartup>:
   1400013c0:	48 83 ec 28          	sub    $0x28,%rsp

00000001400013c4 <.l_startw>:
   1400013c4:	48 8b 05 a5 89 00 00 	mov    0x89a5(%rip),%rax        # 140009d70 <.refptr.__mingw_app_type>
   1400013cb:	c7 00 01 00 00 00    	movl   $0x1,(%rax)
   1400013d1:	e8 aa fd ff ff       	call   140001180 <__tmainCRTStartup>
   1400013d6:	90                   	nop

00000001400013d7 <.l_endw>:
   1400013d7:	90                   	nop
   1400013d8:	48 83 c4 28          	add    $0x28,%rsp
   1400013dc:	c3                   	ret
   1400013dd:	0f 1f 00             	nopl   (%rax)

00000001400013e0 <mainCRTStartup>:
   1400013e0:	48 83 ec 28          	sub    $0x28,%rsp

00000001400013e4 <.l_start>:
   1400013e4:	48 8b 05 85 89 00 00 	mov    0x8985(%rip),%rax        # 140009d70 <.refptr.__mingw_app_type>
   1400013eb:	c7 00 00 00 00 00    	movl   $0x0,(%rax)
   1400013f1:	e8 8a fd ff ff       	call   140001180 <__tmainCRTStartup>
   1400013f6:	90                   	nop

00000001400013f7 <.l_end>:
   1400013f7:	90                   	nop
   1400013f8:	48 83 c4 28          	add    $0x28,%rsp
   1400013fc:	c3                   	ret
   1400013fd:	0f 1f 00             	nopl   (%rax)

0000000140001400 <atexit>:
   140001400:	e9 1b 4a 00 00       	jmp    140005e20 <_crt_atexit>
   140001405:	90                   	nop
   140001406:	90                   	nop
   140001407:	90                   	nop
   140001408:	90                   	nop
   140001409:	90                   	nop
   14000140a:	90                   	nop
   14000140b:	90                   	nop
   14000140c:	90                   	nop
   14000140d:	90                   	nop
   14000140e:	90                   	nop
   14000140f:	90                   	nop

0000000140001410 <__gcc_register_frame>:
   140001410:	48 8d 0d 09 00 00 00 	lea    0x9(%rip),%rcx        # 140001420 <__gcc_deregister_frame>
   140001417:	e9 e4 ff ff ff       	jmp    140001400 <atexit>
   14000141c:	0f 1f 40 00          	nopl   0x0(%rax)

0000000140001420 <__gcc_deregister_frame>:
   140001420:	c3                   	ret
   140001421:	90                   	nop
   140001422:	90                   	nop
   140001423:	90                   	nop
   140001424:	90                   	nop
   140001425:	90                   	nop
   140001426:	90                   	nop
   140001427:	90                   	nop
   140001428:	90                   	nop
   140001429:	90                   	nop
   14000142a:	90                   	nop
   14000142b:	90                   	nop
   14000142c:	90                   	nop
   14000142d:	90                   	nop
   14000142e:	90                   	nop
   14000142f:	90                   	nop

0000000140001430 <main>:
   140001430:	55                   	push   %rbp
   140001431:	48 89 e5             	mov    %rsp,%rbp
   140001434:	48 83 ec 20          	sub    $0x20,%rsp
   140001438:	89 4d 10             	mov    %ecx,0x10(%rbp)
   14000143b:	48 89 55 18          	mov    %rdx,0x18(%rbp)
   14000143f:	e8 ec 36 00 00       	call   140004b30 <__main>
   140001444:	48 8b 55 18          	mov    0x18(%rbp),%rdx
   140001448:	8b 45 10             	mov    0x10(%rbp),%eax
   14000144b:	89 c1                	mov    %eax,%ecx
   14000144d:	e8 a8 00 00 00       	call   1400014fa <emu_run>
   140001452:	48 83 c4 20          	add    $0x20,%rsp
   140001456:	5d                   	pop    %rbp
   140001457:	c3                   	ret
   140001458:	90                   	nop
   140001459:	90                   	nop
   14000145a:	90                   	nop
   14000145b:	90                   	nop
   14000145c:	90                   	nop
   14000145d:	90                   	nop
   14000145e:	90                   	nop
   14000145f:	90                   	nop

0000000140001460 <emu_get_context>:
   140001460:	55                   	push   %rbp
   140001461:	48 89 e5             	mov    %rsp,%rbp
   140001464:	48 8d 05 c5 bb 00 00 	lea    0xbbc5(%rip),%rax        # 14000d030 <ctx>
   14000146b:	5d                   	pop    %rbp
   14000146c:	c3                   	ret

000000014000146d <cpu_run>:
   14000146d:	55                   	push   %rbp
   14000146e:	48 89 e5             	mov    %rsp,%rbp
   140001471:	48 83 ec 20          	sub    $0x20,%rsp
   140001475:	48 89 4d 10          	mov    %rcx,0x10(%rbp)
   140001479:	e8 32 05 00 00       	call   1400019b0 <cpu_init>
   14000147e:	c6 05 ac bb 00 00 01 	movb   $0x1,0xbbac(%rip)        # 14000d031 <ctx+0x1>
   140001485:	c6 05 a4 bb 00 00 00 	movb   $0x0,0xbba4(%rip)        # 14000d030 <ctx>
   14000148c:	48 c7 05 a1 bb 00 00 	movq   $0x0,0xbba1(%rip)        # 14000d038 <ctx+0x8>
   140001493:	00 00 00 00 
   140001497:	eb 4b                	jmp    1400014e4 <cpu_run+0x77>
   140001499:	0f b6 05 90 bb 00 00 	movzbl 0xbb90(%rip),%eax        # 14000d030 <ctx>
   1400014a0:	84 c0                	test   %al,%al
   1400014a2:	74 0c                	je     1400014b0 <cpu_run+0x43>
   1400014a4:	b9 0a 00 00 00       	mov    $0xa,%ecx
   1400014a9:	e8 96 32 00 00       	call   140004744 <delay>
   1400014ae:	eb 34                	jmp    1400014e4 <cpu_run+0x77>
   1400014b0:	e8 c9 05 00 00       	call   140001a7e <cpu_step>
   1400014b5:	83 f0 01             	xor    $0x1,%eax
   1400014b8:	84 c0                	test   %al,%al
   1400014ba:	74 16                	je     1400014d2 <cpu_run+0x65>
   1400014bc:	48 8d 05 45 7b 00 00 	lea    0x7b45(%rip),%rax        # 140009008 <SCREEN_HEIGHT+0x4>
   1400014c3:	48 89 c1             	mov    %rax,%rcx
   1400014c6:	e8 1d 49 00 00       	call   140005de8 <puts>
   1400014cb:	b8 00 00 00 00       	mov    $0x0,%eax
   1400014d0:	eb 22                	jmp    1400014f4 <cpu_run+0x87>
   1400014d2:	48 8b 05 5f bb 00 00 	mov    0xbb5f(%rip),%rax        # 14000d038 <ctx+0x8>
   1400014d9:	48 83 c0 01          	add    $0x1,%rax
   1400014dd:	48 89 05 54 bb 00 00 	mov    %rax,0xbb54(%rip)        # 14000d038 <ctx+0x8>
   1400014e4:	0f b6 05 46 bb 00 00 	movzbl 0xbb46(%rip),%eax        # 14000d031 <ctx+0x1>
   1400014eb:	84 c0                	test   %al,%al
   1400014ed:	75 aa                	jne    140001499 <cpu_run+0x2c>
   1400014ef:	b8 00 00 00 00       	mov    $0x0,%eax
   1400014f4:	48 83 c4 20          	add    $0x20,%rsp
   1400014f8:	5d                   	pop    %rbp
   1400014f9:	c3                   	ret

00000001400014fa <emu_run>:
   1400014fa:	55                   	push   %rbp
   1400014fb:	48 89 e5             	mov    %rsp,%rbp
   1400014fe:	48 83 ec 30          	sub    $0x30,%rsp
   140001502:	89 4d 10             	mov    %ecx,0x10(%rbp)
   140001505:	48 89 55 18          	mov    %rdx,0x18(%rbp)
   140001509:	83 7d 10 01          	cmpl   $0x1,0x10(%rbp)
   14000150d:	7f 19                	jg     140001528 <emu_run+0x2e>
   14000150f:	48 8d 05 fe 7a 00 00 	lea    0x7afe(%rip),%rax        # 140009014 <SCREEN_HEIGHT+0x10>
   140001516:	48 89 c1             	mov    %rax,%rcx
   140001519:	e8 ca 48 00 00       	call   140005de8 <puts>
   14000151e:	b8 ff ff ff ff       	mov    $0xffffffff,%eax
   140001523:	e9 cb 00 00 00       	jmp    1400015f3 <emu_run+0xf9>
   140001528:	48 8b 45 18          	mov    0x18(%rbp),%rax
   14000152c:	48 83 c0 08          	add    $0x8,%rax
   140001530:	48 8b 00             	mov    (%rax),%rax
   140001533:	48 89 c1             	mov    %rax,%rcx
   140001536:	e8 59 01 00 00       	call   140001694 <cart_load>
   14000153b:	83 f0 01             	xor    $0x1,%eax
   14000153e:	84 c0                	test   %al,%al
   140001540:	74 27                	je     140001569 <emu_run+0x6f>
   140001542:	48 8b 45 18          	mov    0x18(%rbp),%rax
   140001546:	48 83 c0 08          	add    $0x8,%rax
   14000154a:	48 8b 00             	mov    (%rax),%rax
   14000154d:	48 89 c2             	mov    %rax,%rdx
   140001550:	48 8d 05 d3 7a 00 00 	lea    0x7ad3(%rip),%rax        # 14000902a <SCREEN_HEIGHT+0x26>
   140001557:	48 89 c1             	mov    %rax,%rcx
   14000155a:	e8 f1 46 00 00       	call   140005c50 <printf>
   14000155f:	b8 fe ff ff ff       	mov    $0xfffffffe,%eax
   140001564:	e9 8a 00 00 00       	jmp    1400015f3 <emu_run+0xf9>
   140001569:	48 8d 05 d7 7a 00 00 	lea    0x7ad7(%rip),%rax        # 140009047 <SCREEN_HEIGHT+0x43>
   140001570:	48 89 c1             	mov    %rax,%rcx
   140001573:	e8 70 48 00 00       	call   140005de8 <puts>
   140001578:	e8 63 31 00 00       	call   1400046e0 <ui_init>
   14000157d:	48 8d 45 f8          	lea    -0x8(%rbp),%rax
   140001581:	41 b9 00 00 00 00    	mov    $0x0,%r9d
   140001587:	4c 8d 05 df fe ff ff 	lea    -0x121(%rip),%r8        # 14000146d <cpu_run>
   14000158e:	ba 00 00 00 00       	mov    $0x0,%edx
   140001593:	48 89 c1             	mov    %rax,%rcx
   140001596:	e8 75 49 00 00       	call   140005f10 <pthread_create>
   14000159b:	85 c0                	test   %eax,%eax
   14000159d:	74 41                	je     1400015e0 <emu_run+0xe6>
   14000159f:	b9 02 00 00 00       	mov    $0x2,%ecx
   1400015a4:	48 8b 05 65 ee 00 00 	mov    0xee65(%rip),%rax        # 140010410 <__imp___acrt_iob_func>
   1400015ab:	ff d0                	call   *%rax
   1400015ad:	49 89 c1             	mov    %rax,%r9
   1400015b0:	41 b8 21 00 00 00    	mov    $0x21,%r8d
   1400015b6:	ba 01 00 00 00       	mov    $0x1,%edx
   1400015bb:	48 8d 05 96 7a 00 00 	lea    0x7a96(%rip),%rax        # 140009058 <SCREEN_HEIGHT+0x54>
   1400015c2:	48 89 c1             	mov    %rax,%rcx
   1400015c5:	e8 16 48 00 00       	call   140005de0 <fwrite>
   1400015ca:	b8 ff ff ff ff       	mov    $0xffffffff,%eax
   1400015cf:	eb 22                	jmp    1400015f3 <emu_run+0xf9>
   1400015d1:	b9 e8 03 00 00       	mov    $0x3e8,%ecx
   1400015d6:	e8 85 45 00 00       	call   140005b60 <usleep>
   1400015db:	e8 80 31 00 00       	call   140004760 <ui_handle_events>
   1400015e0:	0f b6 05 4b ba 00 00 	movzbl 0xba4b(%rip),%eax        # 14000d032 <ctx+0x2>
   1400015e7:	83 f0 01             	xor    $0x1,%eax
   1400015ea:	84 c0                	test   %al,%al
   1400015ec:	75 e3                	jne    1400015d1 <emu_run+0xd7>
   1400015ee:	b8 00 00 00 00       	mov    $0x0,%eax
   1400015f3:	48 83 c4 30          	add    $0x30,%rsp
   1400015f7:	5d                   	pop    %rbp
   1400015f8:	c3                   	ret

00000001400015f9 <emu_cycles>:
   1400015f9:	55                   	push   %rbp
   1400015fa:	48 89 e5             	mov    %rsp,%rbp
   1400015fd:	89 4d 10             	mov    %ecx,0x10(%rbp)
   140001600:	90                   	nop
   140001601:	5d                   	pop    %rbp
   140001602:	c3                   	ret
   140001603:	90                   	nop
   140001604:	90                   	nop
   140001605:	90                   	nop
   140001606:	90                   	nop
   140001607:	90                   	nop
   140001608:	90                   	nop
   140001609:	90                   	nop
   14000160a:	90                   	nop
   14000160b:	90                   	nop
   14000160c:	90                   	nop
   14000160d:	90                   	nop
   14000160e:	90                   	nop
   14000160f:	90                   	nop

0000000140001610 <cart_lic_name>:
   140001610:	55                   	push   %rbp
   140001611:	48 89 e5             	mov    %rsp,%rbp
   140001614:	48 8b 05 35 be 00 00 	mov    0xbe35(%rip),%rax        # 14000d450 <ctx+0x410>
   14000161b:	0f b7 40 44          	movzwl 0x44(%rax),%eax
   14000161f:	66 3d a4 00          	cmp    $0xa4,%ax
   140001623:	77 25                	ja     14000164a <cart_lic_name+0x3a>
   140001625:	48 8b 05 24 be 00 00 	mov    0xbe24(%rip),%rax        # 14000d450 <ctx+0x410>
   14000162c:	0f b6 40 4b          	movzbl 0x4b(%rax),%eax
   140001630:	0f b6 c0             	movzbl %al,%eax
   140001633:	48 98                	cltq
   140001635:	48 8d 14 c5 00 00 00 	lea    0x0(,%rax,8),%rdx
   14000163c:	00 
   14000163d:	48 8d 05 dc 4a 00 00 	lea    0x4adc(%rip),%rax        # 140006120 <__data_start__+0x120>
   140001644:	48 8b 04 02          	mov    (%rdx,%rax,1),%rax
   140001648:	eb 07                	jmp    140001651 <cart_lic_name+0x41>
   14000164a:	48 8d 05 fc 7d 00 00 	lea    0x7dfc(%rip),%rax        # 14000944d <.rdata+0x3cd>
   140001651:	5d                   	pop    %rbp
   140001652:	c3                   	ret

0000000140001653 <cart_type_name>:
   140001653:	55                   	push   %rbp
   140001654:	48 89 e5             	mov    %rsp,%rbp
   140001657:	48 8b 05 f2 bd 00 00 	mov    0xbdf2(%rip),%rax        # 14000d450 <ctx+0x410>
   14000165e:	0f b6 40 47          	movzbl 0x47(%rax),%eax
   140001662:	3c 22                	cmp    $0x22,%al
   140001664:	77 25                	ja     14000168b <cart_type_name+0x38>
   140001666:	48 8b 05 e3 bd 00 00 	mov    0xbde3(%rip),%rax        # 14000d450 <ctx+0x410>
   14000166d:	0f b6 40 47          	movzbl 0x47(%rax),%eax
   140001671:	0f b6 c0             	movzbl %al,%eax
   140001674:	48 98                	cltq
   140001676:	48 8d 14 c5 00 00 00 	lea    0x0(,%rax,8),%rdx
   14000167d:	00 
   14000167e:	48 8d 05 7b 49 00 00 	lea    0x497b(%rip),%rax        # 140006000 <__data_start__>
   140001685:	48 8b 04 02          	mov    (%rdx,%rax,1),%rax
   140001689:	eb 07                	jmp    140001692 <cart_type_name+0x3f>
   14000168b:	48 8d 05 bb 7d 00 00 	lea    0x7dbb(%rip),%rax        # 14000944d <.rdata+0x3cd>
   140001692:	5d                   	pop    %rbp
   140001693:	c3                   	ret

0000000140001694 <cart_load>:
   140001694:	55                   	push   %rbp
   140001695:	48 89 e5             	mov    %rsp,%rbp
   140001698:	48 83 ec 30          	sub    $0x30,%rsp
   14000169c:	48 89 4d 10          	mov    %rcx,0x10(%rbp)
   1400016a0:	48 8b 45 10          	mov    0x10(%rbp),%rax
   1400016a4:	49 89 c1             	mov    %rax,%r9
   1400016a7:	4c 8d 05 a7 7d 00 00 	lea    0x7da7(%rip),%r8        # 140009455 <.rdata+0x3d5>
   1400016ae:	ba 00 04 00 00       	mov    $0x400,%edx
   1400016b3:	48 8d 05 86 b9 00 00 	lea    0xb986(%rip),%rax        # 14000d040 <ctx>
   1400016ba:	48 89 c1             	mov    %rax,%rcx
   1400016bd:	e8 4e 45 00 00       	call   140005c10 <snprintf>
   1400016c2:	48 8b 45 10          	mov    0x10(%rbp),%rax
   1400016c6:	48 8d 15 8b 7d 00 00 	lea    0x7d8b(%rip),%rdx        # 140009458 <.rdata+0x3d8>
   1400016cd:	48 89 c1             	mov    %rax,%rcx
   1400016d0:	e8 eb 46 00 00       	call   140005dc0 <fopen>
   1400016d5:	48 89 45 f0          	mov    %rax,-0x10(%rbp)
   1400016d9:	48 83 7d f0 00       	cmpq   $0x0,-0x10(%rbp)
   1400016de:	75 20                	jne    140001700 <cart_load+0x6c>
   1400016e0:	48 8b 45 10          	mov    0x10(%rbp),%rax
   1400016e4:	48 89 c2             	mov    %rax,%rdx
   1400016e7:	48 8d 05 6c 7d 00 00 	lea    0x7d6c(%rip),%rax        # 14000945a <.rdata+0x3da>
   1400016ee:	48 89 c1             	mov    %rax,%rcx
   1400016f1:	e8 5a 45 00 00       	call   140005c50 <printf>
   1400016f6:	b8 00 00 00 00       	mov    $0x0,%eax
   1400016fb:	e9 21 02 00 00       	jmp    140001921 <cart_load+0x28d>
   140001700:	48 8d 05 39 b9 00 00 	lea    0xb939(%rip),%rax        # 14000d040 <ctx>
   140001707:	48 89 c2             	mov    %rax,%rdx
   14000170a:	48 8d 05 5d 7d 00 00 	lea    0x7d5d(%rip),%rax        # 14000946e <.rdata+0x3ee>
   140001711:	48 89 c1             	mov    %rax,%rcx
   140001714:	e8 37 45 00 00       	call   140005c50 <printf>
   140001719:	48 8b 45 f0          	mov    -0x10(%rbp),%rax
   14000171d:	41 b8 02 00 00 00    	mov    $0x2,%r8d
   140001723:	ba 00 00 00 00       	mov    $0x0,%edx
   140001728:	48 89 c1             	mov    %rax,%rcx
   14000172b:	e8 a0 46 00 00       	call   140005dd0 <fseek>
   140001730:	48 8b 45 f0          	mov    -0x10(%rbp),%rax
   140001734:	48 89 c1             	mov    %rax,%rcx
   140001737:	e8 9c 46 00 00       	call   140005dd8 <ftell>
   14000173c:	89 05 fe bc 00 00    	mov    %eax,0xbcfe(%rip)        # 14000d440 <ctx+0x400>
   140001742:	48 8b 45 f0          	mov    -0x10(%rbp),%rax
   140001746:	48 89 c1             	mov    %rax,%rcx
   140001749:	e8 a2 46 00 00       	call   140005df0 <rewind>
   14000174e:	8b 05 ec bc 00 00    	mov    0xbcec(%rip),%eax        # 14000d440 <ctx+0x400>
   140001754:	89 c0                	mov    %eax,%eax
   140001756:	48 89 c1             	mov    %rax,%rcx
   140001759:	e8 4a 47 00 00       	call   140005ea8 <malloc>
   14000175e:	48 89 05 e3 bc 00 00 	mov    %rax,0xbce3(%rip)        # 14000d448 <ctx+0x408>
   140001765:	8b 05 d5 bc 00 00    	mov    0xbcd5(%rip),%eax        # 14000d440 <ctx+0x400>
   14000176b:	89 c1                	mov    %eax,%ecx
   14000176d:	48 8b 05 d4 bc 00 00 	mov    0xbcd4(%rip),%rax        # 14000d448 <ctx+0x408>
   140001774:	48 8b 55 f0          	mov    -0x10(%rbp),%rdx
   140001778:	49 89 d1             	mov    %rdx,%r9
   14000177b:	41 b8 01 00 00 00    	mov    $0x1,%r8d
   140001781:	48 89 ca             	mov    %rcx,%rdx
   140001784:	48 89 c1             	mov    %rax,%rcx
   140001787:	e8 3c 46 00 00       	call   140005dc8 <fread>
   14000178c:	48 8b 45 f0          	mov    -0x10(%rbp),%rax
   140001790:	48 89 c1             	mov    %rax,%rcx
   140001793:	e8 20 46 00 00       	call   140005db8 <fclose>
   140001798:	48 8b 05 a9 bc 00 00 	mov    0xbca9(%rip),%rax        # 14000d448 <ctx+0x408>
   14000179f:	48 05 00 01 00 00    	add    $0x100,%rax
   1400017a5:	48 89 05 a4 bc 00 00 	mov    %rax,0xbca4(%rip)        # 14000d450 <ctx+0x410>
   1400017ac:	48 8b 05 9d bc 00 00 	mov    0xbc9d(%rip),%rax        # 14000d450 <ctx+0x410>
   1400017b3:	c6 40 43 00          	movb   $0x0,0x43(%rax)
   1400017b7:	48 8d 05 bc 7c 00 00 	lea    0x7cbc(%rip),%rax        # 14000947a <.rdata+0x3fa>
   1400017be:	48 89 c1             	mov    %rax,%rcx
   1400017c1:	e8 22 46 00 00       	call   140005de8 <puts>
   1400017c6:	48 8b 05 83 bc 00 00 	mov    0xbc83(%rip),%rax        # 14000d450 <ctx+0x410>
   1400017cd:	48 83 c0 34          	add    $0x34,%rax
   1400017d1:	48 89 c2             	mov    %rax,%rdx
   1400017d4:	48 8d 05 b1 7c 00 00 	lea    0x7cb1(%rip),%rax        # 14000948c <.rdata+0x40c>
   1400017db:	48 89 c1             	mov    %rax,%rcx
   1400017de:	e8 6d 44 00 00       	call   140005c50 <printf>
   1400017e3:	e8 6b fe ff ff       	call   140001653 <cart_type_name>
   1400017e8:	48 89 c2             	mov    %rax,%rdx
   1400017eb:	48 8b 05 5e bc 00 00 	mov    0xbc5e(%rip),%rax        # 14000d450 <ctx+0x410>
   1400017f2:	0f b6 40 47          	movzbl 0x47(%rax),%eax
   1400017f6:	0f b6 c0             	movzbl %al,%eax
   1400017f9:	49 89 d0             	mov    %rdx,%r8
   1400017fc:	89 c2                	mov    %eax,%edx
   1400017fe:	48 8d 05 98 7c 00 00 	lea    0x7c98(%rip),%rax        # 14000949d <.rdata+0x41d>
   140001805:	48 89 c1             	mov    %rax,%rcx
   140001808:	e8 43 44 00 00       	call   140005c50 <printf>
   14000180d:	48 8b 05 3c bc 00 00 	mov    0xbc3c(%rip),%rax        # 14000d450 <ctx+0x410>
   140001814:	0f b6 40 48          	movzbl 0x48(%rax),%eax
   140001818:	0f b6 c0             	movzbl %al,%eax
   14000181b:	ba 20 00 00 00       	mov    $0x20,%edx
   140001820:	89 c1                	mov    %eax,%ecx
   140001822:	d3 e2                	shl    %cl,%edx
   140001824:	89 d0                	mov    %edx,%eax
   140001826:	89 c2                	mov    %eax,%edx
   140001828:	48 8d 05 87 7c 00 00 	lea    0x7c87(%rip),%rax        # 1400094b6 <.rdata+0x436>
   14000182f:	48 89 c1             	mov    %rax,%rcx
   140001832:	e8 19 44 00 00       	call   140005c50 <printf>
   140001837:	48 8b 05 12 bc 00 00 	mov    0xbc12(%rip),%rax        # 14000d450 <ctx+0x410>
   14000183e:	0f b6 40 49          	movzbl 0x49(%rax),%eax
   140001842:	0f b6 c0             	movzbl %al,%eax
   140001845:	89 c2                	mov    %eax,%edx
   140001847:	48 8d 05 7c 7c 00 00 	lea    0x7c7c(%rip),%rax        # 1400094ca <.rdata+0x44a>
   14000184e:	48 89 c1             	mov    %rax,%rcx
   140001851:	e8 fa 43 00 00       	call   140005c50 <printf>
   140001856:	e8 b5 fd ff ff       	call   140001610 <cart_lic_name>
   14000185b:	48 89 c2             	mov    %rax,%rdx
   14000185e:	48 8b 05 eb bb 00 00 	mov    0xbbeb(%rip),%rax        # 14000d450 <ctx+0x410>
   140001865:	0f b6 40 4b          	movzbl 0x4b(%rax),%eax
   140001869:	0f b6 c0             	movzbl %al,%eax
   14000186c:	49 89 d0             	mov    %rdx,%r8
   14000186f:	89 c2                	mov    %eax,%edx
   140001871:	48 8d 05 66 7c 00 00 	lea    0x7c66(%rip),%rax        # 1400094de <.rdata+0x45e>
   140001878:	48 89 c1             	mov    %rax,%rcx
   14000187b:	e8 d0 43 00 00       	call   140005c50 <printf>
   140001880:	48 8b 05 c9 bb 00 00 	mov    0xbbc9(%rip),%rax        # 14000d450 <ctx+0x410>
   140001887:	0f b6 40 4c          	movzbl 0x4c(%rax),%eax
   14000188b:	0f b6 c0             	movzbl %al,%eax
   14000188e:	89 c2                	mov    %eax,%edx
   140001890:	48 8d 05 60 7c 00 00 	lea    0x7c60(%rip),%rax        # 1400094f7 <.rdata+0x477>
   140001897:	48 89 c1             	mov    %rax,%rcx
   14000189a:	e8 b1 43 00 00       	call   140005c50 <printf>
   14000189f:	66 c7 45 fe 00 00    	movw   $0x0,-0x2(%rbp)
   1400018a5:	66 c7 45 fc 34 01    	movw   $0x134,-0x4(%rbp)
   1400018ab:	eb 2c                	jmp    1400018d9 <cart_load+0x245>
   1400018ad:	48 8b 15 94 bb 00 00 	mov    0xbb94(%rip),%rdx        # 14000d448 <ctx+0x408>
   1400018b4:	0f b7 45 fc          	movzwl -0x4(%rbp),%eax
   1400018b8:	48 01 d0             	add    %rdx,%rax
   1400018bb:	0f b6 00             	movzbl (%rax),%eax
   1400018be:	0f b6 d0             	movzbl %al,%edx
   1400018c1:	0f b7 45 fe          	movzwl -0x2(%rbp),%eax
   1400018c5:	29 d0                	sub    %edx,%eax
   1400018c7:	83 e8 01             	sub    $0x1,%eax
   1400018ca:	66 89 45 fe          	mov    %ax,-0x2(%rbp)
   1400018ce:	0f b7 45 fc          	movzwl -0x4(%rbp),%eax
   1400018d2:	83 c0 01             	add    $0x1,%eax
   1400018d5:	66 89 45 fc          	mov    %ax,-0x4(%rbp)
   1400018d9:	66 81 7d fc 4c 01    	cmpw   $0x14c,-0x4(%rbp)
   1400018df:	76 cc                	jbe    1400018ad <cart_load+0x219>
   1400018e1:	0f b7 45 fe          	movzwl -0x2(%rbp),%eax
   1400018e5:	0f b6 c0             	movzbl %al,%eax
   1400018e8:	85 c0                	test   %eax,%eax
   1400018ea:	74 09                	je     1400018f5 <cart_load+0x261>
   1400018ec:	48 8d 05 18 7c 00 00 	lea    0x7c18(%rip),%rax        # 14000950b <.rdata+0x48b>
   1400018f3:	eb 07                	jmp    1400018fc <cart_load+0x268>
   1400018f5:	48 8d 05 16 7c 00 00 	lea    0x7c16(%rip),%rax        # 140009512 <.rdata+0x492>
   1400018fc:	48 8b 15 4d bb 00 00 	mov    0xbb4d(%rip),%rdx        # 14000d450 <ctx+0x410>
   140001903:	0f b6 52 4d          	movzbl 0x4d(%rdx),%edx
   140001907:	0f b6 d2             	movzbl %dl,%edx
   14000190a:	49 89 c0             	mov    %rax,%r8
   14000190d:	48 8d 05 05 7c 00 00 	lea    0x7c05(%rip),%rax        # 140009519 <.rdata+0x499>
   140001914:	48 89 c1             	mov    %rax,%rcx
   140001917:	e8 34 43 00 00       	call   140005c50 <printf>
   14000191c:	b8 01 00 00 00       	mov    $0x1,%eax
   140001921:	48 83 c4 30          	add    $0x30,%rsp
   140001925:	5d                   	pop    %rbp
   140001926:	c3                   	ret

0000000140001927 <cart_read>:
   140001927:	55                   	push   %rbp
   140001928:	48 89 e5             	mov    %rsp,%rbp
   14000192b:	89 c8                	mov    %ecx,%eax
   14000192d:	66 89 45 10          	mov    %ax,0x10(%rbp)
   140001931:	48 8b 15 10 bb 00 00 	mov    0xbb10(%rip),%rdx        # 14000d448 <ctx+0x408>
   140001938:	0f b7 45 10          	movzwl 0x10(%rbp),%eax
   14000193c:	48 01 d0             	add    %rdx,%rax
   14000193f:	0f b6 00             	movzbl (%rax),%eax
   140001942:	5d                   	pop    %rbp
   140001943:	c3                   	ret

0000000140001944 <cart_write>:
   140001944:	55                   	push   %rbp
   140001945:	48 89 e5             	mov    %rsp,%rbp
   140001948:	48 83 ec 20          	sub    $0x20,%rsp
   14000194c:	89 d0                	mov    %edx,%eax
   14000194e:	89 ca                	mov    %ecx,%edx
   140001950:	66 89 55 10          	mov    %dx,0x10(%rbp)
   140001954:	88 45 18             	mov    %al,0x18(%rbp)
   140001957:	0f b7 45 10          	movzwl 0x10(%rbp),%eax
   14000195b:	89 c2                	mov    %eax,%edx
   14000195d:	48 8d 05 ce 7b 00 00 	lea    0x7bce(%rip),%rax        # 140009532 <.rdata+0x4b2>
   140001964:	48 89 c1             	mov    %rax,%rcx
   140001967:	e8 e4 42 00 00       	call   140005c50 <printf>
   14000196c:	b9 02 00 00 00       	mov    $0x2,%ecx
   140001971:	48 8b 05 98 ea 00 00 	mov    0xea98(%rip),%rax        # 140010410 <__imp___acrt_iob_func>
   140001978:	ff d0                	call   *%rax
   14000197a:	49 89 c1             	mov    %rax,%r9
   14000197d:	41 b8 14 00 00 00    	mov    $0x14,%r8d
   140001983:	ba 01 00 00 00       	mov    $0x1,%edx
   140001988:	48 8d 05 b5 7b 00 00 	lea    0x7bb5(%rip),%rax        # 140009544 <.rdata+0x4c4>
   14000198f:	48 89 c1             	mov    %rax,%rcx
   140001992:	e8 49 44 00 00       	call   140005de0 <fwrite>
   140001997:	b9 fb ff ff ff       	mov    $0xfffffffb,%ecx
   14000199c:	e8 b7 44 00 00       	call   140005e58 <exit>
   1400019a1:	90                   	nop
   1400019a2:	90                   	nop
   1400019a3:	90                   	nop
   1400019a4:	90                   	nop
   1400019a5:	90                   	nop
   1400019a6:	90                   	nop
   1400019a7:	90                   	nop
   1400019a8:	90                   	nop
   1400019a9:	90                   	nop
   1400019aa:	90                   	nop
   1400019ab:	90                   	nop
   1400019ac:	90                   	nop
   1400019ad:	90                   	nop
   1400019ae:	90                   	nop
   1400019af:	90                   	nop

00000001400019b0 <cpu_init>:
   1400019b0:	55                   	push   %rbp
   1400019b1:	48 89 e5             	mov    %rsp,%rbp
   1400019b4:	66 c7 05 ab ba 00 00 	movw   $0x100,0xbaab(%rip)        # 14000d468 <ctx+0x8>
   1400019bb:	00 01 
   1400019bd:	c6 05 9c ba 00 00 01 	movb   $0x1,0xba9c(%rip)        # 14000d460 <ctx>
   1400019c4:	90                   	nop
   1400019c5:	5d                   	pop    %rbp
   1400019c6:	c3                   	ret

00000001400019c7 <fetch_instruction>:
   1400019c7:	55                   	push   %rbp
   1400019c8:	48 89 e5             	mov    %rsp,%rbp
   1400019cb:	48 83 ec 20          	sub    $0x20,%rsp
   1400019cf:	0f b7 05 92 ba 00 00 	movzwl 0xba92(%rip),%eax        # 14000d468 <ctx+0x8>
   1400019d6:	8d 50 01             	lea    0x1(%rax),%edx
   1400019d9:	66 89 15 88 ba 00 00 	mov    %dx,0xba88(%rip)        # 14000d468 <ctx+0x8>
   1400019e0:	0f b7 c0             	movzwl %ax,%eax
   1400019e3:	89 c1                	mov    %eax,%ecx
   1400019e5:	e8 b6 2d 00 00       	call   1400047a0 <bus_read>
   1400019ea:	88 05 81 ba 00 00    	mov    %al,0xba81(%rip)        # 14000d471 <ctx+0x11>
   1400019f0:	0f b6 05 7a ba 00 00 	movzbl 0xba7a(%rip),%eax        # 14000d471 <ctx+0x11>
   1400019f7:	0f b6 c0             	movzbl %al,%eax
   1400019fa:	89 c1                	mov    %eax,%ecx
   1400019fc:	e8 6f 29 00 00       	call   140004370 <instruction_by_opcode>
   140001a01:	48 89 05 70 ba 00 00 	mov    %rax,0xba70(%rip)        # 14000d478 <ctx+0x18>
   140001a08:	90                   	nop
   140001a09:	48 83 c4 20          	add    $0x20,%rsp
   140001a0d:	5d                   	pop    %rbp
   140001a0e:	c3                   	ret

0000000140001a0f <execute>:
   140001a0f:	55                   	push   %rbp
   140001a10:	48 89 e5             	mov    %rsp,%rbp
   140001a13:	48 83 ec 30          	sub    $0x30,%rsp
   140001a17:	48 8b 05 5a ba 00 00 	mov    0xba5a(%rip),%rax        # 14000d478 <ctx+0x18>
   140001a1e:	8b 00                	mov    (%rax),%eax
   140001a20:	89 c1                	mov    %eax,%ecx
   140001a22:	e8 a8 23 00 00       	call   140003dcf <inst_get_processor>
   140001a27:	48 89 45 f8          	mov    %rax,-0x8(%rbp)
   140001a2b:	48 83 7d f8 00       	cmpq   $0x0,-0x8(%rbp)
   140001a30:	75 35                	jne    140001a67 <execute+0x58>
   140001a32:	b9 02 00 00 00       	mov    $0x2,%ecx
   140001a37:	48 8b 05 d2 e9 00 00 	mov    0xe9d2(%rip),%rax        # 140010410 <__imp___acrt_iob_func>
   140001a3e:	ff d0                	call   *%rax
   140001a40:	49 89 c1             	mov    %rax,%r9
   140001a43:	41 b8 14 00 00 00    	mov    $0x14,%r8d
   140001a49:	ba 01 00 00 00       	mov    $0x1,%edx
   140001a4e:	48 8d 05 0b 7b 00 00 	lea    0x7b0b(%rip),%rax        # 140009560 <.rdata>
   140001a55:	48 89 c1             	mov    %rax,%rcx
   140001a58:	e8 83 43 00 00       	call   140005de0 <fwrite>
   140001a5d:	b9 fb ff ff ff       	mov    $0xfffffffb,%ecx
   140001a62:	e8 f1 43 00 00       	call   140005e58 <exit>
   140001a67:	48 8b 45 f8          	mov    -0x8(%rbp),%rax
   140001a6b:	48 8d 15 ee b9 00 00 	lea    0xb9ee(%rip),%rdx        # 14000d460 <ctx>
   140001a72:	48 89 d1             	mov    %rdx,%rcx
   140001a75:	ff d0                	call   *%rax
   140001a77:	90                   	nop
   140001a78:	48 83 c4 30          	add    $0x30,%rsp
   140001a7c:	5d                   	pop    %rbp
   140001a7d:	c3                   	ret

0000000140001a7e <cpu_step>:
   140001a7e:	55                   	push   %rbp
   140001a7f:	41 57                	push   %r15
   140001a81:	41 56                	push   %r14
   140001a83:	41 55                	push   %r13
   140001a85:	41 54                	push   %r12
   140001a87:	57                   	push   %rdi
   140001a88:	56                   	push   %rsi
   140001a89:	53                   	push   %rbx
   140001a8a:	48 81 ec c8 00 00 00 	sub    $0xc8,%rsp
   140001a91:	48 8d ac 24 c0 00 00 	lea    0xc0(%rsp),%rbp
   140001a98:	00 
   140001a99:	0f b6 05 e0 b9 00 00 	movzbl 0xb9e0(%rip),%eax        # 14000d480 <ctx+0x20>
   140001aa0:	83 f0 01             	xor    $0x1,%eax
   140001aa3:	84 c0                	test   %al,%al
   140001aa5:	0f 84 e7 01 00 00    	je     140001c92 <cpu_step+0x214>
   140001aab:	0f b7 05 b6 b9 00 00 	movzwl 0xb9b6(%rip),%eax        # 14000d468 <ctx+0x8>
   140001ab2:	66 89 45 fe          	mov    %ax,-0x2(%rbp)
   140001ab6:	e8 0c ff ff ff       	call   1400019c7 <fetch_instruction>
   140001abb:	b9 01 00 00 00       	mov    $0x1,%ecx
   140001ac0:	e8 34 fb ff ff       	call   1400015f9 <emu_cycles>
   140001ac5:	e8 56 02 00 00       	call   140001d20 <fetch_data>
   140001aca:	0f b6 05 90 b9 00 00 	movzbl 0xb990(%rip),%eax        # 14000d461 <ctx+0x1>
   140001ad1:	0f b6 c0             	movzbl %al,%eax
   140001ad4:	83 e0 10             	and    $0x10,%eax
   140001ad7:	85 c0                	test   %eax,%eax
   140001ad9:	74 07                	je     140001ae2 <cpu_step+0x64>
   140001adb:	b9 43 00 00 00       	mov    $0x43,%ecx
   140001ae0:	eb 05                	jmp    140001ae7 <cpu_step+0x69>
   140001ae2:	b9 2d 00 00 00       	mov    $0x2d,%ecx
   140001ae7:	0f b6 05 73 b9 00 00 	movzbl 0xb973(%rip),%eax        # 14000d461 <ctx+0x1>
   140001aee:	0f b6 c0             	movzbl %al,%eax
   140001af1:	83 e0 20             	and    $0x20,%eax
   140001af4:	85 c0                	test   %eax,%eax
   140001af6:	74 07                	je     140001aff <cpu_step+0x81>
   140001af8:	ba 48 00 00 00       	mov    $0x48,%edx
   140001afd:	eb 05                	jmp    140001b04 <cpu_step+0x86>
   140001aff:	ba 2d 00 00 00       	mov    $0x2d,%edx
   140001b04:	0f b6 05 56 b9 00 00 	movzbl 0xb956(%rip),%eax        # 14000d461 <ctx+0x1>
   140001b0b:	0f b6 c0             	movzbl %al,%eax
   140001b0e:	83 e0 40             	and    $0x40,%eax
   140001b11:	85 c0                	test   %eax,%eax
   140001b13:	74 08                	je     140001b1d <cpu_step+0x9f>
   140001b15:	41 b9 4e 00 00 00    	mov    $0x4e,%r9d
   140001b1b:	eb 06                	jmp    140001b23 <cpu_step+0xa5>
   140001b1d:	41 b9 2d 00 00 00    	mov    $0x2d,%r9d
   140001b23:	0f b6 05 37 b9 00 00 	movzbl 0xb937(%rip),%eax        # 14000d461 <ctx+0x1>
   140001b2a:	84 c0                	test   %al,%al
   140001b2c:	79 08                	jns    140001b36 <cpu_step+0xb8>
   140001b2e:	41 b8 5a 00 00 00    	mov    $0x5a,%r8d
   140001b34:	eb 06                	jmp    140001b3c <cpu_step+0xbe>
   140001b36:	41 b8 2d 00 00 00    	mov    $0x2d,%r8d
   140001b3c:	48 8d 45 e0          	lea    -0x20(%rbp),%rax
   140001b40:	89 4c 24 28          	mov    %ecx,0x28(%rsp)
   140001b44:	89 54 24 20          	mov    %edx,0x20(%rsp)
   140001b48:	48 8d 15 26 7a 00 00 	lea    0x7a26(%rip),%rdx        # 140009575 <.rdata+0x15>
   140001b4f:	48 89 c1             	mov    %rax,%rcx
   140001b52:	e8 69 40 00 00       	call   140005bc0 <sprintf>
   140001b57:	0f b6 05 09 b9 00 00 	movzbl 0xb909(%rip),%eax        # 14000d467 <ctx+0x7>
   140001b5e:	0f b6 c0             	movzbl %al,%eax
   140001b61:	89 45 dc             	mov    %eax,-0x24(%rbp)
   140001b64:	0f b6 05 fb b8 00 00 	movzbl 0xb8fb(%rip),%eax        # 14000d466 <ctx+0x6>
   140001b6b:	0f b6 d8             	movzbl %al,%ebx
   140001b6e:	89 5d d8             	mov    %ebx,-0x28(%rbp)
   140001b71:	0f b6 05 ed b8 00 00 	movzbl 0xb8ed(%rip),%eax        # 14000d465 <ctx+0x5>
   140001b78:	0f b6 f0             	movzbl %al,%esi
   140001b7b:	89 75 d4             	mov    %esi,-0x2c(%rbp)
   140001b7e:	0f b6 05 df b8 00 00 	movzbl 0xb8df(%rip),%eax        # 14000d464 <ctx+0x4>
   140001b85:	44 0f b6 f8          	movzbl %al,%r15d
   140001b89:	0f b6 05 d3 b8 00 00 	movzbl 0xb8d3(%rip),%eax        # 14000d463 <ctx+0x3>
   140001b90:	44 0f b6 f0          	movzbl %al,%r14d
   140001b94:	0f b6 05 c7 b8 00 00 	movzbl 0xb8c7(%rip),%eax        # 14000d462 <ctx+0x2>
   140001b9b:	44 0f b6 e8          	movzbl %al,%r13d
   140001b9f:	0f b6 05 ba b8 00 00 	movzbl 0xb8ba(%rip),%eax        # 14000d460 <ctx>
   140001ba6:	44 0f b6 e0          	movzbl %al,%r12d
   140001baa:	0f b7 45 fe          	movzwl -0x2(%rbp),%eax
   140001bae:	83 c0 02             	add    $0x2,%eax
   140001bb1:	0f b7 c0             	movzwl %ax,%eax
   140001bb4:	89 c1                	mov    %eax,%ecx
   140001bb6:	e8 e5 2b 00 00       	call   1400047a0 <bus_read>
   140001bbb:	0f b6 f8             	movzbl %al,%edi
   140001bbe:	0f b7 45 fe          	movzwl -0x2(%rbp),%eax
   140001bc2:	83 c0 01             	add    $0x1,%eax
   140001bc5:	0f b7 c0             	movzwl %ax,%eax
   140001bc8:	89 c1                	mov    %eax,%ecx
   140001bca:	e8 d1 2b 00 00       	call   1400047a0 <bus_read>
   140001bcf:	0f b6 f0             	movzbl %al,%esi
   140001bd2:	0f b6 05 98 b8 00 00 	movzbl 0xb898(%rip),%eax        # 14000d471 <ctx+0x11>
   140001bd9:	0f b6 d8             	movzbl %al,%ebx
   140001bdc:	48 8b 05 95 b8 00 00 	mov    0xb895(%rip),%rax        # 14000d478 <ctx+0x18>
   140001be3:	8b 00                	mov    (%rax),%eax
   140001be5:	89 c1                	mov    %eax,%ecx
   140001be7:	e8 ad 27 00 00       	call   140004399 <inst_name>
   140001bec:	48 89 45 c8          	mov    %rax,-0x38(%rbp)
   140001bf0:	44 0f b7 55 fe       	movzwl -0x2(%rbp),%r10d
   140001bf5:	44 89 55 d0          	mov    %r10d,-0x30(%rbp)
   140001bf9:	e8 62 f8 ff ff       	call   140001460 <emu_get_context>
   140001bfe:	48 8b 40 08          	mov    0x8(%rax),%rax
   140001c02:	8b 55 dc             	mov    -0x24(%rbp),%edx
   140001c05:	89 54 24 70          	mov    %edx,0x70(%rsp)
   140001c09:	8b 55 d8             	mov    -0x28(%rbp),%edx
   140001c0c:	89 54 24 68          	mov    %edx,0x68(%rsp)
   140001c10:	8b 4d d4             	mov    -0x2c(%rbp),%ecx
   140001c13:	89 4c 24 60          	mov    %ecx,0x60(%rsp)
   140001c17:	44 89 7c 24 58       	mov    %r15d,0x58(%rsp)
   140001c1c:	44 89 74 24 50       	mov    %r14d,0x50(%rsp)
   140001c21:	44 89 6c 24 48       	mov    %r13d,0x48(%rsp)
   140001c26:	48 8d 55 e0          	lea    -0x20(%rbp),%rdx
   140001c2a:	48 89 54 24 40       	mov    %rdx,0x40(%rsp)
   140001c2f:	44 89 64 24 38       	mov    %r12d,0x38(%rsp)
   140001c34:	89 7c 24 30          	mov    %edi,0x30(%rsp)
   140001c38:	89 74 24 28          	mov    %esi,0x28(%rsp)
   140001c3c:	89 5c 24 20          	mov    %ebx,0x20(%rsp)
   140001c40:	4c 8b 4d c8          	mov    -0x38(%rbp),%r9
   140001c44:	44 8b 45 d0          	mov    -0x30(%rbp),%r8d
   140001c48:	48 89 c2             	mov    %rax,%rdx
   140001c4b:	48 8d 05 2e 79 00 00 	lea    0x792e(%rip),%rax        # 140009580 <.rdata+0x20>
   140001c52:	48 89 c1             	mov    %rax,%rcx
   140001c55:	e8 f6 3f 00 00       	call   140005c50 <printf>
   140001c5a:	48 8b 05 17 b8 00 00 	mov    0xb817(%rip),%rax        # 14000d478 <ctx+0x18>
   140001c61:	48 85 c0             	test   %rax,%rax
   140001c64:	75 25                	jne    140001c8b <cpu_step+0x20d>
   140001c66:	0f b6 05 04 b8 00 00 	movzbl 0xb804(%rip),%eax        # 14000d471 <ctx+0x11>
   140001c6d:	0f b6 c0             	movzbl %al,%eax
   140001c70:	89 c2                	mov    %eax,%edx
   140001c72:	48 8d 05 62 79 00 00 	lea    0x7962(%rip),%rax        # 1400095db <.rdata+0x7b>
   140001c79:	48 89 c1             	mov    %rax,%rcx
   140001c7c:	e8 cf 3f 00 00       	call   140005c50 <printf>
   140001c81:	b9 f9 ff ff ff       	mov    $0xfffffff9,%ecx
   140001c86:	e8 cd 41 00 00       	call   140005e58 <exit>
   140001c8b:	e8 7f fd ff ff       	call   140001a0f <execute>
   140001c90:	eb 1c                	jmp    140001cae <cpu_step+0x230>
   140001c92:	b9 01 00 00 00       	mov    $0x1,%ecx
   140001c97:	e8 5d f9 ff ff       	call   1400015f9 <emu_cycles>
   140001c9c:	0f b6 05 e2 b7 00 00 	movzbl 0xb7e2(%rip),%eax        # 14000d485 <ctx+0x25>
   140001ca3:	84 c0                	test   %al,%al
   140001ca5:	74 07                	je     140001cae <cpu_step+0x230>
   140001ca7:	c6 05 d2 b7 00 00 00 	movb   $0x0,0xb7d2(%rip)        # 14000d480 <ctx+0x20>
   140001cae:	0f b6 05 cd b7 00 00 	movzbl 0xb7cd(%rip),%eax        # 14000d482 <ctx+0x22>
   140001cb5:	84 c0                	test   %al,%al
   140001cb7:	74 16                	je     140001ccf <cpu_step+0x251>
   140001cb9:	48 8d 05 a0 b7 00 00 	lea    0xb7a0(%rip),%rax        # 14000d460 <ctx>
   140001cc0:	48 89 c1             	mov    %rax,%rcx
   140001cc3:	e8 b1 27 00 00       	call   140004479 <cpu_handle_interrupts>
   140001cc8:	c6 05 b4 b7 00 00 00 	movb   $0x0,0xb7b4(%rip)        # 14000d483 <ctx+0x23>
   140001ccf:	0f b6 05 ad b7 00 00 	movzbl 0xb7ad(%rip),%eax        # 14000d483 <ctx+0x23>
   140001cd6:	84 c0                	test   %al,%al
   140001cd8:	74 07                	je     140001ce1 <cpu_step+0x263>
   140001cda:	c6 05 a1 b7 00 00 01 	movb   $0x1,0xb7a1(%rip)        # 14000d482 <ctx+0x22>
   140001ce1:	b8 01 00 00 00       	mov    $0x1,%eax
   140001ce6:	48 81 c4 c8 00 00 00 	add    $0xc8,%rsp
   140001ced:	5b                   	pop    %rbx
   140001cee:	5e                   	pop    %rsi
   140001cef:	5f                   	pop    %rdi
   140001cf0:	41 5c                	pop    %r12
   140001cf2:	41 5d                	pop    %r13
   140001cf4:	41 5e                	pop    %r14
   140001cf6:	41 5f                	pop    %r15
   140001cf8:	5d                   	pop    %rbp
   140001cf9:	c3                   	ret

0000000140001cfa <cpu_get_ie_register>:
   140001cfa:	55                   	push   %rbp
   140001cfb:	48 89 e5             	mov    %rsp,%rbp
   140001cfe:	0f b6 05 7f b7 00 00 	movzbl 0xb77f(%rip),%eax        # 14000d484 <ctx+0x24>
   140001d05:	5d                   	pop    %rbp
   140001d06:	c3                   	ret

0000000140001d07 <cpu_set_ie_register>:
   140001d07:	55                   	push   %rbp
   140001d08:	48 89 e5             	mov    %rsp,%rbp
   140001d0b:	89 c8                	mov    %ecx,%eax
   140001d0d:	88 45 10             	mov    %al,0x10(%rbp)
   140001d10:	0f b6 45 10          	movzbl 0x10(%rbp),%eax
   140001d14:	88 05 6a b7 00 00    	mov    %al,0xb76a(%rip)        # 14000d484 <ctx+0x24>
   140001d1a:	90                   	nop
   140001d1b:	5d                   	pop    %rbp
   140001d1c:	c3                   	ret
   140001d1d:	90                   	nop
   140001d1e:	90                   	nop
   140001d1f:	90                   	nop

0000000140001d20 <fetch_data>:
   140001d20:	55                   	push   %rbp
   140001d21:	48 89 e5             	mov    %rsp,%rbp
   140001d24:	48 83 ec 30          	sub    $0x30,%rsp
   140001d28:	48 8b 05 51 81 00 00 	mov    0x8151(%rip),%rax        # 140009e80 <.refptr.ctx>
   140001d2f:	66 c7 40 0e 00 00    	movw   $0x0,0xe(%rax)
   140001d35:	48 8b 05 44 81 00 00 	mov    0x8144(%rip),%rax        # 140009e80 <.refptr.ctx>
   140001d3c:	c6 40 10 00          	movb   $0x0,0x10(%rax)
   140001d40:	48 8b 05 39 81 00 00 	mov    0x8139(%rip),%rax        # 140009e80 <.refptr.ctx>
   140001d47:	48 8b 40 18          	mov    0x18(%rax),%rax
   140001d4b:	48 85 c0             	test   %rax,%rax
   140001d4e:	0f 84 64 07 00 00    	je     1400024b8 <fetch_data+0x798>
   140001d54:	48 8b 05 25 81 00 00 	mov    0x8125(%rip),%rax        # 140009e80 <.refptr.ctx>
   140001d5b:	48 8b 40 18          	mov    0x18(%rax),%rax
   140001d5f:	8b 40 04             	mov    0x4(%rax),%eax
   140001d62:	83 f8 14             	cmp    $0x14,%eax
   140001d65:	0f 87 13 07 00 00    	ja     14000247e <fetch_data+0x75e>
   140001d6b:	89 c0                	mov    %eax,%eax
   140001d6d:	48 8d 14 85 00 00 00 	lea    0x0(,%rax,4),%rdx
   140001d74:	00 
   140001d75:	48 8d 05 a8 78 00 00 	lea    0x78a8(%rip),%rax        # 140009624 <.rdata+0x24>
   140001d7c:	8b 04 02             	mov    (%rdx,%rax,1),%eax
   140001d7f:	48 98                	cltq
   140001d81:	48 8d 15 9c 78 00 00 	lea    0x789c(%rip),%rdx        # 140009624 <.rdata+0x24>
   140001d88:	48 01 d0             	add    %rdx,%rax
   140001d8b:	ff e0                	jmp    *%rax
   140001d8d:	48 8b 05 ec 80 00 00 	mov    0x80ec(%rip),%rax        # 140009e80 <.refptr.ctx>
   140001d94:	48 8b 40 18          	mov    0x18(%rax),%rax
   140001d98:	8b 40 08             	mov    0x8(%rax),%eax
   140001d9b:	89 c1                	mov    %eax,%ecx
   140001d9d:	e8 6d 20 00 00       	call   140003e0f <cpu_read_reg>
   140001da2:	48 8b 15 d7 80 00 00 	mov    0x80d7(%rip),%rdx        # 140009e80 <.refptr.ctx>
   140001da9:	66 89 42 0c          	mov    %ax,0xc(%rdx)
   140001dad:	e9 0d 07 00 00       	jmp    1400024bf <fetch_data+0x79f>
   140001db2:	48 8b 05 c7 80 00 00 	mov    0x80c7(%rip),%rax        # 140009e80 <.refptr.ctx>
   140001db9:	48 8b 40 18          	mov    0x18(%rax),%rax
   140001dbd:	8b 40 0c             	mov    0xc(%rax),%eax
   140001dc0:	89 c1                	mov    %eax,%ecx
   140001dc2:	e8 48 20 00 00       	call   140003e0f <cpu_read_reg>
   140001dc7:	48 8b 15 b2 80 00 00 	mov    0x80b2(%rip),%rdx        # 140009e80 <.refptr.ctx>
   140001dce:	66 89 42 0c          	mov    %ax,0xc(%rdx)
   140001dd2:	e9 e8 06 00 00       	jmp    1400024bf <fetch_data+0x79f>
   140001dd7:	48 8b 05 a2 80 00 00 	mov    0x80a2(%rip),%rax        # 140009e80 <.refptr.ctx>
   140001dde:	0f b7 40 08          	movzwl 0x8(%rax),%eax
   140001de2:	0f b7 c0             	movzwl %ax,%eax
   140001de5:	89 c1                	mov    %eax,%ecx
   140001de7:	e8 b4 29 00 00       	call   1400047a0 <bus_read>
   140001dec:	0f b6 d0             	movzbl %al,%edx
   140001def:	48 8b 05 8a 80 00 00 	mov    0x808a(%rip),%rax        # 140009e80 <.refptr.ctx>
   140001df6:	66 89 50 0c          	mov    %dx,0xc(%rax)
   140001dfa:	b9 01 00 00 00       	mov    $0x1,%ecx
   140001dff:	e8 f5 f7 ff ff       	call   1400015f9 <emu_cycles>
   140001e04:	48 8b 05 75 80 00 00 	mov    0x8075(%rip),%rax        # 140009e80 <.refptr.ctx>
   140001e0b:	0f b7 40 08          	movzwl 0x8(%rax),%eax
   140001e0f:	8d 50 01             	lea    0x1(%rax),%edx
   140001e12:	48 8b 05 67 80 00 00 	mov    0x8067(%rip),%rax        # 140009e80 <.refptr.ctx>
   140001e19:	66 89 50 08          	mov    %dx,0x8(%rax)
   140001e1d:	e9 9d 06 00 00       	jmp    1400024bf <fetch_data+0x79f>
   140001e22:	48 8b 05 57 80 00 00 	mov    0x8057(%rip),%rax        # 140009e80 <.refptr.ctx>
   140001e29:	0f b7 40 08          	movzwl 0x8(%rax),%eax
   140001e2d:	0f b7 c0             	movzwl %ax,%eax
   140001e30:	89 c1                	mov    %eax,%ecx
   140001e32:	e8 69 29 00 00       	call   1400047a0 <bus_read>
   140001e37:	0f b6 c0             	movzbl %al,%eax
   140001e3a:	66 89 45 f2          	mov    %ax,-0xe(%rbp)
   140001e3e:	b9 01 00 00 00       	mov    $0x1,%ecx
   140001e43:	e8 b1 f7 ff ff       	call   1400015f9 <emu_cycles>
   140001e48:	48 8b 05 31 80 00 00 	mov    0x8031(%rip),%rax        # 140009e80 <.refptr.ctx>
   140001e4f:	0f b7 40 08          	movzwl 0x8(%rax),%eax
   140001e53:	83 c0 01             	add    $0x1,%eax
   140001e56:	0f b7 c0             	movzwl %ax,%eax
   140001e59:	89 c1                	mov    %eax,%ecx
   140001e5b:	e8 40 29 00 00       	call   1400047a0 <bus_read>
   140001e60:	0f b6 c0             	movzbl %al,%eax
   140001e63:	66 89 45 f0          	mov    %ax,-0x10(%rbp)
   140001e67:	b9 01 00 00 00       	mov    $0x1,%ecx
   140001e6c:	e8 88 f7 ff ff       	call   1400015f9 <emu_cycles>
   140001e71:	0f b7 45 f0          	movzwl -0x10(%rbp),%eax
   140001e75:	c1 e0 08             	shl    $0x8,%eax
   140001e78:	89 c2                	mov    %eax,%edx
   140001e7a:	0f b7 45 f2          	movzwl -0xe(%rbp),%eax
   140001e7e:	09 d0                	or     %edx,%eax
   140001e80:	89 c2                	mov    %eax,%edx
   140001e82:	48 8b 05 f7 7f 00 00 	mov    0x7ff7(%rip),%rax        # 140009e80 <.refptr.ctx>
   140001e89:	66 89 50 0c          	mov    %dx,0xc(%rax)
   140001e8d:	48 8b 05 ec 7f 00 00 	mov    0x7fec(%rip),%rax        # 140009e80 <.refptr.ctx>
   140001e94:	0f b7 40 08          	movzwl 0x8(%rax),%eax
   140001e98:	8d 50 02             	lea    0x2(%rax),%edx
   140001e9b:	48 8b 05 de 7f 00 00 	mov    0x7fde(%rip),%rax        # 140009e80 <.refptr.ctx>
   140001ea2:	66 89 50 08          	mov    %dx,0x8(%rax)
   140001ea6:	e9 14 06 00 00       	jmp    1400024bf <fetch_data+0x79f>
   140001eab:	48 8b 05 ce 7f 00 00 	mov    0x7fce(%rip),%rax        # 140009e80 <.refptr.ctx>
   140001eb2:	48 8b 40 18          	mov    0x18(%rax),%rax
   140001eb6:	8b 40 0c             	mov    0xc(%rax),%eax
   140001eb9:	89 c1                	mov    %eax,%ecx
   140001ebb:	e8 4f 1f 00 00       	call   140003e0f <cpu_read_reg>
   140001ec0:	48 8b 15 b9 7f 00 00 	mov    0x7fb9(%rip),%rdx        # 140009e80 <.refptr.ctx>
   140001ec7:	66 89 42 0c          	mov    %ax,0xc(%rdx)
   140001ecb:	48 8b 05 ae 7f 00 00 	mov    0x7fae(%rip),%rax        # 140009e80 <.refptr.ctx>
   140001ed2:	48 8b 40 18          	mov    0x18(%rax),%rax
   140001ed6:	8b 40 08             	mov    0x8(%rax),%eax
   140001ed9:	89 c1                	mov    %eax,%ecx
   140001edb:	e8 2f 1f 00 00       	call   140003e0f <cpu_read_reg>
   140001ee0:	48 8b 15 99 7f 00 00 	mov    0x7f99(%rip),%rdx        # 140009e80 <.refptr.ctx>
   140001ee7:	66 89 42 0e          	mov    %ax,0xe(%rdx)
   140001eeb:	48 8b 05 8e 7f 00 00 	mov    0x7f8e(%rip),%rax        # 140009e80 <.refptr.ctx>
   140001ef2:	c6 40 10 01          	movb   $0x1,0x10(%rax)
   140001ef6:	48 8b 05 83 7f 00 00 	mov    0x7f83(%rip),%rax        # 140009e80 <.refptr.ctx>
   140001efd:	48 8b 40 18          	mov    0x18(%rax),%rax
   140001f01:	8b 40 08             	mov    0x8(%rax),%eax
   140001f04:	83 f8 04             	cmp    $0x4,%eax
   140001f07:	0f 85 b1 05 00 00    	jne    1400024be <fetch_data+0x79e>
   140001f0d:	48 8b 05 6c 7f 00 00 	mov    0x7f6c(%rip),%rax        # 140009e80 <.refptr.ctx>
   140001f14:	0f b7 40 0e          	movzwl 0xe(%rax),%eax
   140001f18:	66 0d 00 ff          	or     $0xff00,%ax
   140001f1c:	89 c2                	mov    %eax,%edx
   140001f1e:	48 8b 05 5b 7f 00 00 	mov    0x7f5b(%rip),%rax        # 140009e80 <.refptr.ctx>
   140001f25:	66 89 50 0e          	mov    %dx,0xe(%rax)
   140001f29:	e9 90 05 00 00       	jmp    1400024be <fetch_data+0x79e>
   140001f2e:	48 8b 05 4b 7f 00 00 	mov    0x7f4b(%rip),%rax        # 140009e80 <.refptr.ctx>
   140001f35:	48 8b 40 18          	mov    0x18(%rax),%rax
   140001f39:	8b 40 0c             	mov    0xc(%rax),%eax
   140001f3c:	89 c1                	mov    %eax,%ecx
   140001f3e:	e8 cc 1e 00 00       	call   140003e0f <cpu_read_reg>
   140001f43:	66 89 45 fe          	mov    %ax,-0x2(%rbp)
   140001f47:	48 8b 05 32 7f 00 00 	mov    0x7f32(%rip),%rax        # 140009e80 <.refptr.ctx>
   140001f4e:	48 8b 40 18          	mov    0x18(%rax),%rax
   140001f52:	8b 40 0c             	mov    0xc(%rax),%eax
   140001f55:	83 f8 04             	cmp    $0x4,%eax
   140001f58:	75 06                	jne    140001f60 <fetch_data+0x240>
   140001f5a:	66 81 4d fe 00 ff    	orw    $0xff00,-0x2(%rbp)
   140001f60:	0f b7 45 fe          	movzwl -0x2(%rbp),%eax
   140001f64:	89 c1                	mov    %eax,%ecx
   140001f66:	e8 35 28 00 00       	call   1400047a0 <bus_read>
   140001f6b:	0f b6 d0             	movzbl %al,%edx
   140001f6e:	48 8b 05 0b 7f 00 00 	mov    0x7f0b(%rip),%rax        # 140009e80 <.refptr.ctx>
   140001f75:	66 89 50 0c          	mov    %dx,0xc(%rax)
   140001f79:	b9 01 00 00 00       	mov    $0x1,%ecx
   140001f7e:	e8 76 f6 ff ff       	call   1400015f9 <emu_cycles>
   140001f83:	e9 37 05 00 00       	jmp    1400024bf <fetch_data+0x79f>
   140001f88:	48 8b 05 f1 7e 00 00 	mov    0x7ef1(%rip),%rax        # 140009e80 <.refptr.ctx>
   140001f8f:	48 8b 40 18          	mov    0x18(%rax),%rax
   140001f93:	8b 40 0c             	mov    0xc(%rax),%eax
   140001f96:	89 c1                	mov    %eax,%ecx
   140001f98:	e8 72 1e 00 00       	call   140003e0f <cpu_read_reg>
   140001f9d:	0f b7 c0             	movzwl %ax,%eax
   140001fa0:	89 c1                	mov    %eax,%ecx
   140001fa2:	e8 f9 27 00 00       	call   1400047a0 <bus_read>
   140001fa7:	0f b6 d0             	movzbl %al,%edx
   140001faa:	48 8b 05 cf 7e 00 00 	mov    0x7ecf(%rip),%rax        # 140009e80 <.refptr.ctx>
   140001fb1:	66 89 50 0c          	mov    %dx,0xc(%rax)
   140001fb5:	b9 01 00 00 00       	mov    $0x1,%ecx
   140001fba:	e8 3a f6 ff ff       	call   1400015f9 <emu_cycles>
   140001fbf:	b9 0c 00 00 00       	mov    $0xc,%ecx
   140001fc4:	e8 46 1e 00 00       	call   140003e0f <cpu_read_reg>
   140001fc9:	83 c0 01             	add    $0x1,%eax
   140001fcc:	0f b7 c0             	movzwl %ax,%eax
   140001fcf:	89 c2                	mov    %eax,%edx
   140001fd1:	b9 0c 00 00 00       	mov    $0xc,%ecx
   140001fd6:	e8 8c 1f 00 00       	call   140003f67 <cpu_set_reg>
   140001fdb:	e9 df 04 00 00       	jmp    1400024bf <fetch_data+0x79f>
   140001fe0:	48 8b 05 99 7e 00 00 	mov    0x7e99(%rip),%rax        # 140009e80 <.refptr.ctx>
   140001fe7:	48 8b 40 18          	mov    0x18(%rax),%rax
   140001feb:	8b 40 0c             	mov    0xc(%rax),%eax
   140001fee:	89 c1                	mov    %eax,%ecx
   140001ff0:	e8 1a 1e 00 00       	call   140003e0f <cpu_read_reg>
   140001ff5:	0f b7 c0             	movzwl %ax,%eax
   140001ff8:	89 c1                	mov    %eax,%ecx
   140001ffa:	e8 a1 27 00 00       	call   1400047a0 <bus_read>
   140001fff:	0f b6 d0             	movzbl %al,%edx
   140002002:	48 8b 05 77 7e 00 00 	mov    0x7e77(%rip),%rax        # 140009e80 <.refptr.ctx>
   140002009:	66 89 50 0c          	mov    %dx,0xc(%rax)
   14000200d:	b9 01 00 00 00       	mov    $0x1,%ecx
   140002012:	e8 e2 f5 ff ff       	call   1400015f9 <emu_cycles>
   140002017:	b9 0c 00 00 00       	mov    $0xc,%ecx
   14000201c:	e8 ee 1d 00 00       	call   140003e0f <cpu_read_reg>
   140002021:	83 e8 01             	sub    $0x1,%eax
   140002024:	0f b7 c0             	movzwl %ax,%eax
   140002027:	89 c2                	mov    %eax,%edx
   140002029:	b9 0c 00 00 00       	mov    $0xc,%ecx
   14000202e:	e8 34 1f 00 00       	call   140003f67 <cpu_set_reg>
   140002033:	e9 87 04 00 00       	jmp    1400024bf <fetch_data+0x79f>
   140002038:	48 8b 05 41 7e 00 00 	mov    0x7e41(%rip),%rax        # 140009e80 <.refptr.ctx>
   14000203f:	48 8b 40 18          	mov    0x18(%rax),%rax
   140002043:	8b 40 0c             	mov    0xc(%rax),%eax
   140002046:	89 c1                	mov    %eax,%ecx
   140002048:	e8 c2 1d 00 00       	call   140003e0f <cpu_read_reg>
   14000204d:	48 8b 15 2c 7e 00 00 	mov    0x7e2c(%rip),%rdx        # 140009e80 <.refptr.ctx>
   140002054:	66 89 42 0c          	mov    %ax,0xc(%rdx)
   140002058:	48 8b 05 21 7e 00 00 	mov    0x7e21(%rip),%rax        # 140009e80 <.refptr.ctx>
   14000205f:	48 8b 40 18          	mov    0x18(%rax),%rax
   140002063:	8b 40 08             	mov    0x8(%rax),%eax
   140002066:	89 c1                	mov    %eax,%ecx
   140002068:	e8 a2 1d 00 00       	call   140003e0f <cpu_read_reg>
   14000206d:	48 8b 15 0c 7e 00 00 	mov    0x7e0c(%rip),%rdx        # 140009e80 <.refptr.ctx>
   140002074:	66 89 42 0e          	mov    %ax,0xe(%rdx)
   140002078:	48 8b 05 01 7e 00 00 	mov    0x7e01(%rip),%rax        # 140009e80 <.refptr.ctx>
   14000207f:	c6 40 10 01          	movb   $0x1,0x10(%rax)
   140002083:	b9 0c 00 00 00       	mov    $0xc,%ecx
   140002088:	e8 82 1d 00 00       	call   140003e0f <cpu_read_reg>
   14000208d:	83 c0 01             	add    $0x1,%eax
   140002090:	0f b7 c0             	movzwl %ax,%eax
   140002093:	89 c2                	mov    %eax,%edx
   140002095:	b9 0c 00 00 00       	mov    $0xc,%ecx
   14000209a:	e8 c8 1e 00 00       	call   140003f67 <cpu_set_reg>
   14000209f:	e9 1b 04 00 00       	jmp    1400024bf <fetch_data+0x79f>
   1400020a4:	48 8b 05 d5 7d 00 00 	mov    0x7dd5(%rip),%rax        # 140009e80 <.refptr.ctx>
   1400020ab:	48 8b 40 18          	mov    0x18(%rax),%rax
   1400020af:	8b 40 0c             	mov    0xc(%rax),%eax
   1400020b2:	89 c1                	mov    %eax,%ecx
   1400020b4:	e8 56 1d 00 00       	call   140003e0f <cpu_read_reg>
   1400020b9:	48 8b 15 c0 7d 00 00 	mov    0x7dc0(%rip),%rdx        # 140009e80 <.refptr.ctx>
   1400020c0:	66 89 42 0c          	mov    %ax,0xc(%rdx)
   1400020c4:	48 8b 05 b5 7d 00 00 	mov    0x7db5(%rip),%rax        # 140009e80 <.refptr.ctx>
   1400020cb:	48 8b 40 18          	mov    0x18(%rax),%rax
   1400020cf:	8b 40 08             	mov    0x8(%rax),%eax
   1400020d2:	89 c1                	mov    %eax,%ecx
   1400020d4:	e8 36 1d 00 00       	call   140003e0f <cpu_read_reg>
   1400020d9:	48 8b 15 a0 7d 00 00 	mov    0x7da0(%rip),%rdx        # 140009e80 <.refptr.ctx>
   1400020e0:	66 89 42 0e          	mov    %ax,0xe(%rdx)
   1400020e4:	48 8b 05 95 7d 00 00 	mov    0x7d95(%rip),%rax        # 140009e80 <.refptr.ctx>
   1400020eb:	c6 40 10 01          	movb   $0x1,0x10(%rax)
   1400020ef:	b9 0c 00 00 00       	mov    $0xc,%ecx
   1400020f4:	e8 16 1d 00 00       	call   140003e0f <cpu_read_reg>
   1400020f9:	83 e8 01             	sub    $0x1,%eax
   1400020fc:	0f b7 c0             	movzwl %ax,%eax
   1400020ff:	89 c2                	mov    %eax,%edx
   140002101:	b9 0c 00 00 00       	mov    $0xc,%ecx
   140002106:	e8 5c 1e 00 00       	call   140003f67 <cpu_set_reg>
   14000210b:	e9 af 03 00 00       	jmp    1400024bf <fetch_data+0x79f>
   140002110:	48 8b 05 69 7d 00 00 	mov    0x7d69(%rip),%rax        # 140009e80 <.refptr.ctx>
   140002117:	0f b7 40 08          	movzwl 0x8(%rax),%eax
   14000211b:	0f b7 c0             	movzwl %ax,%eax
   14000211e:	89 c1                	mov    %eax,%ecx
   140002120:	e8 7b 26 00 00       	call   1400047a0 <bus_read>
   140002125:	0f b6 d0             	movzbl %al,%edx
   140002128:	48 8b 05 51 7d 00 00 	mov    0x7d51(%rip),%rax        # 140009e80 <.refptr.ctx>
   14000212f:	66 89 50 0c          	mov    %dx,0xc(%rax)
   140002133:	b9 01 00 00 00       	mov    $0x1,%ecx
   140002138:	e8 bc f4 ff ff       	call   1400015f9 <emu_cycles>
   14000213d:	48 8b 05 3c 7d 00 00 	mov    0x7d3c(%rip),%rax        # 140009e80 <.refptr.ctx>
   140002144:	0f b7 40 08          	movzwl 0x8(%rax),%eax
   140002148:	8d 50 01             	lea    0x1(%rax),%edx
   14000214b:	48 8b 05 2e 7d 00 00 	mov    0x7d2e(%rip),%rax        # 140009e80 <.refptr.ctx>
   140002152:	66 89 50 08          	mov    %dx,0x8(%rax)
   140002156:	e9 64 03 00 00       	jmp    1400024bf <fetch_data+0x79f>
   14000215b:	48 8b 05 1e 7d 00 00 	mov    0x7d1e(%rip),%rax        # 140009e80 <.refptr.ctx>
   140002162:	0f b7 40 08          	movzwl 0x8(%rax),%eax
   140002166:	0f b7 c0             	movzwl %ax,%eax
   140002169:	89 c1                	mov    %eax,%ecx
   14000216b:	e8 30 26 00 00       	call   1400047a0 <bus_read>
   140002170:	0f b6 c0             	movzbl %al,%eax
   140002173:	66 0d 00 ff          	or     $0xff00,%ax
   140002177:	89 c2                	mov    %eax,%edx
   140002179:	48 8b 05 00 7d 00 00 	mov    0x7d00(%rip),%rax        # 140009e80 <.refptr.ctx>
   140002180:	66 89 50 0e          	mov    %dx,0xe(%rax)
   140002184:	48 8b 05 f5 7c 00 00 	mov    0x7cf5(%rip),%rax        # 140009e80 <.refptr.ctx>
   14000218b:	c6 40 10 01          	movb   $0x1,0x10(%rax)
   14000218f:	b9 01 00 00 00       	mov    $0x1,%ecx
   140002194:	e8 60 f4 ff ff       	call   1400015f9 <emu_cycles>
   140002199:	48 8b 05 e0 7c 00 00 	mov    0x7ce0(%rip),%rax        # 140009e80 <.refptr.ctx>
   1400021a0:	0f b7 40 08          	movzwl 0x8(%rax),%eax
   1400021a4:	8d 50 01             	lea    0x1(%rax),%edx
   1400021a7:	48 8b 05 d2 7c 00 00 	mov    0x7cd2(%rip),%rax        # 140009e80 <.refptr.ctx>
   1400021ae:	66 89 50 08          	mov    %dx,0x8(%rax)
   1400021b2:	e9 08 03 00 00       	jmp    1400024bf <fetch_data+0x79f>
   1400021b7:	48 8b 05 c2 7c 00 00 	mov    0x7cc2(%rip),%rax        # 140009e80 <.refptr.ctx>
   1400021be:	0f b7 40 08          	movzwl 0x8(%rax),%eax
   1400021c2:	0f b7 c0             	movzwl %ax,%eax
   1400021c5:	89 c1                	mov    %eax,%ecx
   1400021c7:	e8 d4 25 00 00       	call   1400047a0 <bus_read>
   1400021cc:	0f b6 d0             	movzbl %al,%edx
   1400021cf:	48 8b 05 aa 7c 00 00 	mov    0x7caa(%rip),%rax        # 140009e80 <.refptr.ctx>
   1400021d6:	66 89 50 0c          	mov    %dx,0xc(%rax)
   1400021da:	b9 01 00 00 00       	mov    $0x1,%ecx
   1400021df:	e8 15 f4 ff ff       	call   1400015f9 <emu_cycles>
   1400021e4:	48 8b 05 95 7c 00 00 	mov    0x7c95(%rip),%rax        # 140009e80 <.refptr.ctx>
   1400021eb:	0f b7 40 08          	movzwl 0x8(%rax),%eax
   1400021ef:	8d 50 01             	lea    0x1(%rax),%edx
   1400021f2:	48 8b 05 87 7c 00 00 	mov    0x7c87(%rip),%rax        # 140009e80 <.refptr.ctx>
   1400021f9:	66 89 50 08          	mov    %dx,0x8(%rax)
   1400021fd:	e9 bd 02 00 00       	jmp    1400024bf <fetch_data+0x79f>
   140002202:	48 8b 05 77 7c 00 00 	mov    0x7c77(%rip),%rax        # 140009e80 <.refptr.ctx>
   140002209:	0f b7 40 08          	movzwl 0x8(%rax),%eax
   14000220d:	0f b7 c0             	movzwl %ax,%eax
   140002210:	89 c1                	mov    %eax,%ecx
   140002212:	e8 89 25 00 00       	call   1400047a0 <bus_read>
   140002217:	0f b6 d0             	movzbl %al,%edx
   14000221a:	48 8b 05 5f 7c 00 00 	mov    0x7c5f(%rip),%rax        # 140009e80 <.refptr.ctx>
   140002221:	66 89 50 0c          	mov    %dx,0xc(%rax)
   140002225:	b9 01 00 00 00       	mov    $0x1,%ecx
   14000222a:	e8 ca f3 ff ff       	call   1400015f9 <emu_cycles>
   14000222f:	48 8b 05 4a 7c 00 00 	mov    0x7c4a(%rip),%rax        # 140009e80 <.refptr.ctx>
   140002236:	0f b7 40 08          	movzwl 0x8(%rax),%eax
   14000223a:	8d 50 01             	lea    0x1(%rax),%edx
   14000223d:	48 8b 05 3c 7c 00 00 	mov    0x7c3c(%rip),%rax        # 140009e80 <.refptr.ctx>
   140002244:	66 89 50 08          	mov    %dx,0x8(%rax)
   140002248:	e9 72 02 00 00       	jmp    1400024bf <fetch_data+0x79f>
   14000224d:	48 8b 05 2c 7c 00 00 	mov    0x7c2c(%rip),%rax        # 140009e80 <.refptr.ctx>
   140002254:	0f b7 40 08          	movzwl 0x8(%rax),%eax
   140002258:	0f b7 c0             	movzwl %ax,%eax
   14000225b:	89 c1                	mov    %eax,%ecx
   14000225d:	e8 3e 25 00 00       	call   1400047a0 <bus_read>
   140002262:	0f b6 c0             	movzbl %al,%eax
   140002265:	66 89 45 f6          	mov    %ax,-0xa(%rbp)
   140002269:	b9 01 00 00 00       	mov    $0x1,%ecx
   14000226e:	e8 86 f3 ff ff       	call   1400015f9 <emu_cycles>
   140002273:	48 8b 05 06 7c 00 00 	mov    0x7c06(%rip),%rax        # 140009e80 <.refptr.ctx>
   14000227a:	0f b7 40 08          	movzwl 0x8(%rax),%eax
   14000227e:	83 c0 01             	add    $0x1,%eax
   140002281:	0f b7 c0             	movzwl %ax,%eax
   140002284:	89 c1                	mov    %eax,%ecx
   140002286:	e8 15 25 00 00       	call   1400047a0 <bus_read>
   14000228b:	0f b6 c0             	movzbl %al,%eax
   14000228e:	66 89 45 f4          	mov    %ax,-0xc(%rbp)
   140002292:	b9 01 00 00 00       	mov    $0x1,%ecx
   140002297:	e8 5d f3 ff ff       	call   1400015f9 <emu_cycles>
   14000229c:	0f b7 45 f4          	movzwl -0xc(%rbp),%eax
   1400022a0:	c1 e0 08             	shl    $0x8,%eax
   1400022a3:	89 c2                	mov    %eax,%edx
   1400022a5:	0f b7 45 f6          	movzwl -0xa(%rbp),%eax
   1400022a9:	09 d0                	or     %edx,%eax
   1400022ab:	89 c2                	mov    %eax,%edx
   1400022ad:	48 8b 05 cc 7b 00 00 	mov    0x7bcc(%rip),%rax        # 140009e80 <.refptr.ctx>
   1400022b4:	66 89 50 0e          	mov    %dx,0xe(%rax)
   1400022b8:	48 8b 05 c1 7b 00 00 	mov    0x7bc1(%rip),%rax        # 140009e80 <.refptr.ctx>
   1400022bf:	c6 40 10 01          	movb   $0x1,0x10(%rax)
   1400022c3:	48 8b 05 b6 7b 00 00 	mov    0x7bb6(%rip),%rax        # 140009e80 <.refptr.ctx>
   1400022ca:	0f b7 40 08          	movzwl 0x8(%rax),%eax
   1400022ce:	8d 50 02             	lea    0x2(%rax),%edx
   1400022d1:	48 8b 05 a8 7b 00 00 	mov    0x7ba8(%rip),%rax        # 140009e80 <.refptr.ctx>
   1400022d8:	66 89 50 08          	mov    %dx,0x8(%rax)
   1400022dc:	48 8b 05 9d 7b 00 00 	mov    0x7b9d(%rip),%rax        # 140009e80 <.refptr.ctx>
   1400022e3:	48 8b 40 18          	mov    0x18(%rax),%rax
   1400022e7:	8b 40 0c             	mov    0xc(%rax),%eax
   1400022ea:	89 c1                	mov    %eax,%ecx
   1400022ec:	e8 1e 1b 00 00       	call   140003e0f <cpu_read_reg>
   1400022f1:	48 8b 15 88 7b 00 00 	mov    0x7b88(%rip),%rdx        # 140009e80 <.refptr.ctx>
   1400022f8:	66 89 42 0c          	mov    %ax,0xc(%rdx)
   1400022fc:	e9 be 01 00 00       	jmp    1400024bf <fetch_data+0x79f>
   140002301:	48 8b 05 78 7b 00 00 	mov    0x7b78(%rip),%rax        # 140009e80 <.refptr.ctx>
   140002308:	0f b7 40 08          	movzwl 0x8(%rax),%eax
   14000230c:	0f b7 c0             	movzwl %ax,%eax
   14000230f:	89 c1                	mov    %eax,%ecx
   140002311:	e8 8a 24 00 00       	call   1400047a0 <bus_read>
   140002316:	0f b6 d0             	movzbl %al,%edx
   140002319:	48 8b 05 60 7b 00 00 	mov    0x7b60(%rip),%rax        # 140009e80 <.refptr.ctx>
   140002320:	66 89 50 0c          	mov    %dx,0xc(%rax)
   140002324:	b9 01 00 00 00       	mov    $0x1,%ecx
   140002329:	e8 cb f2 ff ff       	call   1400015f9 <emu_cycles>
   14000232e:	48 8b 05 4b 7b 00 00 	mov    0x7b4b(%rip),%rax        # 140009e80 <.refptr.ctx>
   140002335:	0f b7 40 08          	movzwl 0x8(%rax),%eax
   140002339:	8d 50 01             	lea    0x1(%rax),%edx
   14000233c:	48 8b 05 3d 7b 00 00 	mov    0x7b3d(%rip),%rax        # 140009e80 <.refptr.ctx>
   140002343:	66 89 50 08          	mov    %dx,0x8(%rax)
   140002347:	48 8b 05 32 7b 00 00 	mov    0x7b32(%rip),%rax        # 140009e80 <.refptr.ctx>
   14000234e:	48 8b 40 18          	mov    0x18(%rax),%rax
   140002352:	8b 40 08             	mov    0x8(%rax),%eax
   140002355:	89 c1                	mov    %eax,%ecx
   140002357:	e8 b3 1a 00 00       	call   140003e0f <cpu_read_reg>
   14000235c:	48 8b 15 1d 7b 00 00 	mov    0x7b1d(%rip),%rdx        # 140009e80 <.refptr.ctx>
   140002363:	66 89 42 0e          	mov    %ax,0xe(%rdx)
   140002367:	48 8b 05 12 7b 00 00 	mov    0x7b12(%rip),%rax        # 140009e80 <.refptr.ctx>
   14000236e:	c6 40 10 01          	movb   $0x1,0x10(%rax)
   140002372:	e9 48 01 00 00       	jmp    1400024bf <fetch_data+0x79f>
   140002377:	48 8b 05 02 7b 00 00 	mov    0x7b02(%rip),%rax        # 140009e80 <.refptr.ctx>
   14000237e:	48 8b 40 18          	mov    0x18(%rax),%rax
   140002382:	8b 40 08             	mov    0x8(%rax),%eax
   140002385:	89 c1                	mov    %eax,%ecx
   140002387:	e8 83 1a 00 00       	call   140003e0f <cpu_read_reg>
   14000238c:	48 8b 15 ed 7a 00 00 	mov    0x7aed(%rip),%rdx        # 140009e80 <.refptr.ctx>
   140002393:	66 89 42 0e          	mov    %ax,0xe(%rdx)
   140002397:	48 8b 05 e2 7a 00 00 	mov    0x7ae2(%rip),%rax        # 140009e80 <.refptr.ctx>
   14000239e:	c6 40 10 01          	movb   $0x1,0x10(%rax)
   1400023a2:	48 8b 05 d7 7a 00 00 	mov    0x7ad7(%rip),%rax        # 140009e80 <.refptr.ctx>
   1400023a9:	48 8b 40 18          	mov    0x18(%rax),%rax
   1400023ad:	8b 40 08             	mov    0x8(%rax),%eax
   1400023b0:	89 c1                	mov    %eax,%ecx
   1400023b2:	e8 58 1a 00 00       	call   140003e0f <cpu_read_reg>
   1400023b7:	0f b7 c0             	movzwl %ax,%eax
   1400023ba:	89 c1                	mov    %eax,%ecx
   1400023bc:	e8 df 23 00 00       	call   1400047a0 <bus_read>
   1400023c1:	0f b6 d0             	movzbl %al,%edx
   1400023c4:	48 8b 05 b5 7a 00 00 	mov    0x7ab5(%rip),%rax        # 140009e80 <.refptr.ctx>
   1400023cb:	66 89 50 0c          	mov    %dx,0xc(%rax)
   1400023cf:	b9 01 00 00 00       	mov    $0x1,%ecx
   1400023d4:	e8 20 f2 ff ff       	call   1400015f9 <emu_cycles>
   1400023d9:	e9 e1 00 00 00       	jmp    1400024bf <fetch_data+0x79f>
   1400023de:	48 8b 05 9b 7a 00 00 	mov    0x7a9b(%rip),%rax        # 140009e80 <.refptr.ctx>
   1400023e5:	0f b7 40 08          	movzwl 0x8(%rax),%eax
   1400023e9:	0f b7 c0             	movzwl %ax,%eax
   1400023ec:	89 c1                	mov    %eax,%ecx
   1400023ee:	e8 ad 23 00 00       	call   1400047a0 <bus_read>
   1400023f3:	0f b6 c0             	movzbl %al,%eax
   1400023f6:	66 89 45 fc          	mov    %ax,-0x4(%rbp)
   1400023fa:	b9 01 00 00 00       	mov    $0x1,%ecx
   1400023ff:	e8 f5 f1 ff ff       	call   1400015f9 <emu_cycles>
   140002404:	48 8b 05 75 7a 00 00 	mov    0x7a75(%rip),%rax        # 140009e80 <.refptr.ctx>
   14000240b:	0f b7 40 08          	movzwl 0x8(%rax),%eax
   14000240f:	83 c0 01             	add    $0x1,%eax
   140002412:	0f b7 c0             	movzwl %ax,%eax
   140002415:	89 c1                	mov    %eax,%ecx
   140002417:	e8 84 23 00 00       	call   1400047a0 <bus_read>
   14000241c:	0f b6 c0             	movzbl %al,%eax
   14000241f:	66 89 45 fa          	mov    %ax,-0x6(%rbp)
   140002423:	b9 01 00 00 00       	mov    $0x1,%ecx
   140002428:	e8 cc f1 ff ff       	call   1400015f9 <emu_cycles>
   14000242d:	0f b7 45 fa          	movzwl -0x6(%rbp),%eax
   140002431:	c1 e0 08             	shl    $0x8,%eax
   140002434:	89 c2                	mov    %eax,%edx
   140002436:	0f b7 45 fc          	movzwl -0x4(%rbp),%eax
   14000243a:	09 d0                	or     %edx,%eax
   14000243c:	66 89 45 f8          	mov    %ax,-0x8(%rbp)
   140002440:	48 8b 05 39 7a 00 00 	mov    0x7a39(%rip),%rax        # 140009e80 <.refptr.ctx>
   140002447:	0f b7 40 08          	movzwl 0x8(%rax),%eax
   14000244b:	8d 50 02             	lea    0x2(%rax),%edx
   14000244e:	48 8b 05 2b 7a 00 00 	mov    0x7a2b(%rip),%rax        # 140009e80 <.refptr.ctx>
   140002455:	66 89 50 08          	mov    %dx,0x8(%rax)
   140002459:	0f b7 45 f8          	movzwl -0x8(%rbp),%eax
   14000245d:	89 c1                	mov    %eax,%ecx
   14000245f:	e8 3c 23 00 00       	call   1400047a0 <bus_read>
   140002464:	0f b6 d0             	movzbl %al,%edx
   140002467:	48 8b 05 12 7a 00 00 	mov    0x7a12(%rip),%rax        # 140009e80 <.refptr.ctx>
   14000246e:	66 89 50 0c          	mov    %dx,0xc(%rax)
   140002472:	b9 01 00 00 00       	mov    $0x1,%ecx
   140002477:	e8 7d f1 ff ff       	call   1400015f9 <emu_cycles>
   14000247c:	eb 41                	jmp    1400024bf <fetch_data+0x79f>
   14000247e:	48 8b 05 fb 79 00 00 	mov    0x79fb(%rip),%rax        # 140009e80 <.refptr.ctx>
   140002485:	0f b6 40 11          	movzbl 0x11(%rax),%eax
   140002489:	0f b6 d0             	movzbl %al,%edx
   14000248c:	48 8b 05 ed 79 00 00 	mov    0x79ed(%rip),%rax        # 140009e80 <.refptr.ctx>
   140002493:	48 8b 40 18          	mov    0x18(%rax),%rax
   140002497:	8b 40 04             	mov    0x4(%rax),%eax
   14000249a:	41 89 d0             	mov    %edx,%r8d
   14000249d:	89 c2                	mov    %eax,%edx
   14000249f:	48 8d 05 5a 71 00 00 	lea    0x715a(%rip),%rax        # 140009600 <.rdata>
   1400024a6:	48 89 c1             	mov    %rax,%rcx
   1400024a9:	e8 a2 37 00 00       	call   140005c50 <printf>
   1400024ae:	b9 f9 ff ff ff       	mov    $0xfffffff9,%ecx
   1400024b3:	e8 a0 39 00 00       	call   140005e58 <exit>
   1400024b8:	90                   	nop
   1400024b9:	eb 04                	jmp    1400024bf <fetch_data+0x79f>
   1400024bb:	90                   	nop
   1400024bc:	eb 01                	jmp    1400024bf <fetch_data+0x79f>
   1400024be:	90                   	nop
   1400024bf:	48 83 c4 30          	add    $0x30,%rsp
   1400024c3:	5d                   	pop    %rbp
   1400024c4:	c3                   	ret
   1400024c5:	90                   	nop
   1400024c6:	90                   	nop
   1400024c7:	90                   	nop
   1400024c8:	90                   	nop
   1400024c9:	90                   	nop
   1400024ca:	90                   	nop
   1400024cb:	90                   	nop
   1400024cc:	90                   	nop
   1400024cd:	90                   	nop
   1400024ce:	90                   	nop
   1400024cf:	90                   	nop

00000001400024d0 <cpu_set_flags>:
   1400024d0:	55                   	push   %rbp
   1400024d1:	48 89 e5             	mov    %rsp,%rbp
   1400024d4:	48 83 ec 10          	sub    $0x10,%rsp
   1400024d8:	48 89 4d 10          	mov    %rcx,0x10(%rbp)
   1400024dc:	89 d0                	mov    %edx,%eax
   1400024de:	44 89 c9             	mov    %r9d,%ecx
   1400024e1:	8b 55 30             	mov    0x30(%rbp),%edx
   1400024e4:	88 45 18             	mov    %al,0x18(%rbp)
   1400024e7:	44 89 c0             	mov    %r8d,%eax
   1400024ea:	88 45 20             	mov    %al,0x20(%rbp)
   1400024ed:	89 c8                	mov    %ecx,%eax
   1400024ef:	88 45 28             	mov    %al,0x28(%rbp)
   1400024f2:	89 d0                	mov    %edx,%eax
   1400024f4:	88 45 fc             	mov    %al,-0x4(%rbp)
   1400024f7:	80 7d 18 ff          	cmpb   $0xff,0x18(%rbp)
   1400024fb:	74 30                	je     14000252d <cpu_set_flags+0x5d>
   1400024fd:	80 7d 18 00          	cmpb   $0x0,0x18(%rbp)
   140002501:	74 16                	je     140002519 <cpu_set_flags+0x49>
   140002503:	48 8b 45 10          	mov    0x10(%rbp),%rax
   140002507:	0f b6 40 01          	movzbl 0x1(%rax),%eax
   14000250b:	83 c8 80             	or     $0xffffff80,%eax
   14000250e:	89 c2                	mov    %eax,%edx
   140002510:	48 8b 45 10          	mov    0x10(%rbp),%rax
   140002514:	88 50 01             	mov    %dl,0x1(%rax)
   140002517:	eb 14                	jmp    14000252d <cpu_set_flags+0x5d>
   140002519:	48 8b 45 10          	mov    0x10(%rbp),%rax
   14000251d:	0f b6 40 01          	movzbl 0x1(%rax),%eax
   140002521:	83 e0 7f             	and    $0x7f,%eax
   140002524:	89 c2                	mov    %eax,%edx
   140002526:	48 8b 45 10          	mov    0x10(%rbp),%rax
   14000252a:	88 50 01             	mov    %dl,0x1(%rax)
   14000252d:	80 7d 20 ff          	cmpb   $0xff,0x20(%rbp)
   140002531:	74 30                	je     140002563 <cpu_set_flags+0x93>
   140002533:	80 7d 20 00          	cmpb   $0x0,0x20(%rbp)
   140002537:	74 16                	je     14000254f <cpu_set_flags+0x7f>
   140002539:	48 8b 45 10          	mov    0x10(%rbp),%rax
   14000253d:	0f b6 40 01          	movzbl 0x1(%rax),%eax
   140002541:	83 c8 40             	or     $0x40,%eax
   140002544:	89 c2                	mov    %eax,%edx
   140002546:	48 8b 45 10          	mov    0x10(%rbp),%rax
   14000254a:	88 50 01             	mov    %dl,0x1(%rax)
   14000254d:	eb 14                	jmp    140002563 <cpu_set_flags+0x93>
   14000254f:	48 8b 45 10          	mov    0x10(%rbp),%rax
   140002553:	0f b6 40 01          	movzbl 0x1(%rax),%eax
   140002557:	83 e0 bf             	and    $0xffffffbf,%eax
   14000255a:	89 c2                	mov    %eax,%edx
   14000255c:	48 8b 45 10          	mov    0x10(%rbp),%rax
   140002560:	88 50 01             	mov    %dl,0x1(%rax)
   140002563:	80 7d 28 ff          	cmpb   $0xff,0x28(%rbp)
   140002567:	74 30                	je     140002599 <cpu_set_flags+0xc9>
   140002569:	80 7d 28 00          	cmpb   $0x0,0x28(%rbp)
   14000256d:	74 16                	je     140002585 <cpu_set_flags+0xb5>
   14000256f:	48 8b 45 10          	mov    0x10(%rbp),%rax
   140002573:	0f b6 40 01          	movzbl 0x1(%rax),%eax
   140002577:	83 c8 20             	or     $0x20,%eax
   14000257a:	89 c2                	mov    %eax,%edx
   14000257c:	48 8b 45 10          	mov    0x10(%rbp),%rax
   140002580:	88 50 01             	mov    %dl,0x1(%rax)
   140002583:	eb 14                	jmp    140002599 <cpu_set_flags+0xc9>
   140002585:	48 8b 45 10          	mov    0x10(%rbp),%rax
   140002589:	0f b6 40 01          	movzbl 0x1(%rax),%eax
   14000258d:	83 e0 df             	and    $0xffffffdf,%eax
   140002590:	89 c2                	mov    %eax,%edx
   140002592:	48 8b 45 10          	mov    0x10(%rbp),%rax
   140002596:	88 50 01             	mov    %dl,0x1(%rax)
   140002599:	80 7d fc ff          	cmpb   $0xff,-0x4(%rbp)
   14000259d:	74 30                	je     1400025cf <cpu_set_flags+0xff>
   14000259f:	80 7d fc 00          	cmpb   $0x0,-0x4(%rbp)
   1400025a3:	74 16                	je     1400025bb <cpu_set_flags+0xeb>
   1400025a5:	48 8b 45 10          	mov    0x10(%rbp),%rax
   1400025a9:	0f b6 40 01          	movzbl 0x1(%rax),%eax
   1400025ad:	83 c8 10             	or     $0x10,%eax
   1400025b0:	89 c2                	mov    %eax,%edx
   1400025b2:	48 8b 45 10          	mov    0x10(%rbp),%rax
   1400025b6:	88 50 01             	mov    %dl,0x1(%rax)
   1400025b9:	eb 14                	jmp    1400025cf <cpu_set_flags+0xff>
   1400025bb:	48 8b 45 10          	mov    0x10(%rbp),%rax
   1400025bf:	0f b6 40 01          	movzbl 0x1(%rax),%eax
   1400025c3:	83 e0 ef             	and    $0xffffffef,%eax
   1400025c6:	89 c2                	mov    %eax,%edx
   1400025c8:	48 8b 45 10          	mov    0x10(%rbp),%rax
   1400025cc:	88 50 01             	mov    %dl,0x1(%rax)
   1400025cf:	90                   	nop
   1400025d0:	48 83 c4 10          	add    $0x10,%rsp
   1400025d4:	5d                   	pop    %rbp
   1400025d5:	c3                   	ret

00000001400025d6 <proc_none>:
   1400025d6:	55                   	push   %rbp
   1400025d7:	48 89 e5             	mov    %rsp,%rbp
   1400025da:	48 83 ec 20          	sub    $0x20,%rsp
   1400025de:	48 89 4d 10          	mov    %rcx,0x10(%rbp)
   1400025e2:	48 8d 05 97 70 00 00 	lea    0x7097(%rip),%rax        # 140009680 <.rdata>
   1400025e9:	48 89 c1             	mov    %rax,%rcx
   1400025ec:	e8 f7 37 00 00       	call   140005de8 <puts>
   1400025f1:	b9 f9 ff ff ff       	mov    $0xfffffff9,%ecx
   1400025f6:	e8 5d 38 00 00       	call   140005e58 <exit>
   1400025fb:	90                   	nop

00000001400025fc <proc_nop>:
   1400025fc:	55                   	push   %rbp
   1400025fd:	48 89 e5             	mov    %rsp,%rbp
   140002600:	48 89 4d 10          	mov    %rcx,0x10(%rbp)
   140002604:	90                   	nop
   140002605:	5d                   	pop    %rbp
   140002606:	c3                   	ret

0000000140002607 <decode_reg>:
   140002607:	55                   	push   %rbp
   140002608:	48 89 e5             	mov    %rsp,%rbp
   14000260b:	89 c8                	mov    %ecx,%eax
   14000260d:	88 45 10             	mov    %al,0x10(%rbp)
   140002610:	80 7d 10 07          	cmpb   $0x7,0x10(%rbp)
   140002614:	76 07                	jbe    14000261d <decode_reg+0x16>
   140002616:	b8 00 00 00 00       	mov    $0x0,%eax
   14000261b:	eb 18                	jmp    140002635 <decode_reg+0x2e>
   14000261d:	0f b6 45 10          	movzbl 0x10(%rbp),%eax
   140002621:	48 98                	cltq
   140002623:	48 8d 14 85 00 00 00 	lea    0x0(,%rax,4),%rdx
   14000262a:	00 
   14000262b:	48 8d 05 2e 40 00 00 	lea    0x402e(%rip),%rax        # 140006660 <rt_lookup>
   140002632:	8b 04 02             	mov    (%rdx,%rax,1),%eax
   140002635:	5d                   	pop    %rbp
   140002636:	c3                   	ret

0000000140002637 <proc_cb>:
   140002637:	55                   	push   %rbp
   140002638:	53                   	push   %rbx
   140002639:	48 83 ec 58          	sub    $0x58,%rsp
   14000263d:	48 8d 6c 24 50       	lea    0x50(%rsp),%rbp
   140002642:	48 89 4d 20          	mov    %rcx,0x20(%rbp)
   140002646:	48 8b 45 20          	mov    0x20(%rbp),%rax
   14000264a:	0f b7 40 0c          	movzwl 0xc(%rax),%eax
   14000264e:	88 45 fd             	mov    %al,-0x3(%rbp)
   140002651:	0f b6 45 fd          	movzbl -0x3(%rbp),%eax
   140002655:	83 e0 07             	and    $0x7,%eax
   140002658:	89 c1                	mov    %eax,%ecx
   14000265a:	e8 a8 ff ff ff       	call   140002607 <decode_reg>
   14000265f:	89 45 f8             	mov    %eax,-0x8(%rbp)
   140002662:	0f b6 45 fd          	movzbl -0x3(%rbp),%eax
   140002666:	c0 e8 03             	shr    $0x3,%al
   140002669:	83 e0 07             	and    $0x7,%eax
   14000266c:	88 45 f7             	mov    %al,-0x9(%rbp)
   14000266f:	0f b6 45 fd          	movzbl -0x3(%rbp),%eax
   140002673:	c0 e8 06             	shr    $0x6,%al
   140002676:	88 45 f6             	mov    %al,-0xa(%rbp)
   140002679:	8b 45 f8             	mov    -0x8(%rbp),%eax
   14000267c:	89 c1                	mov    %eax,%ecx
   14000267e:	e8 5f 1a 00 00       	call   1400040e2 <cpu_read_reg8>
   140002683:	88 45 f5             	mov    %al,-0xb(%rbp)
   140002686:	b9 01 00 00 00       	mov    $0x1,%ecx
   14000268b:	e8 69 ef ff ff       	call   1400015f9 <emu_cycles>
   140002690:	83 7d f8 0c          	cmpl   $0xc,-0x8(%rbp)
   140002694:	75 0a                	jne    1400026a0 <proc_cb+0x69>
   140002696:	b9 02 00 00 00       	mov    $0x2,%ecx
   14000269b:	e8 59 ef ff ff       	call   1400015f9 <emu_cycles>
   1400026a0:	0f b6 45 f6          	movzbl -0xa(%rbp),%eax
   1400026a4:	83 f8 03             	cmp    $0x3,%eax
   1400026a7:	0f 84 81 00 00 00    	je     14000272e <proc_cb+0xf7>
   1400026ad:	83 f8 03             	cmp    $0x3,%eax
   1400026b0:	0f 8f a5 00 00 00    	jg     14000275b <proc_cb+0x124>
   1400026b6:	83 f8 01             	cmp    $0x1,%eax
   1400026b9:	74 0a                	je     1400026c5 <proc_cb+0x8e>
   1400026bb:	83 f8 02             	cmp    $0x2,%eax
   1400026be:	74 3f                	je     1400026ff <proc_cb+0xc8>
   1400026c0:	e9 96 00 00 00       	jmp    14000275b <proc_cb+0x124>
   1400026c5:	0f b6 55 f5          	movzbl -0xb(%rbp),%edx
   1400026c9:	0f b6 45 f7          	movzbl -0x9(%rbp),%eax
   1400026cd:	89 c1                	mov    %eax,%ecx
   1400026cf:	d3 fa                	sar    %cl,%edx
   1400026d1:	89 d0                	mov    %edx,%eax
   1400026d3:	f7 d0                	not    %eax
   1400026d5:	83 e0 01             	and    $0x1,%eax
   1400026d8:	89 c2                	mov    %eax,%edx
   1400026da:	48 8b 45 20          	mov    0x20(%rbp),%rax
   1400026de:	c7 44 24 20 ff ff ff 	movl   $0xffffffff,0x20(%rsp)
   1400026e5:	ff 
   1400026e6:	41 b9 01 00 00 00    	mov    $0x1,%r9d
   1400026ec:	41 b8 00 00 00 00    	mov    $0x0,%r8d
   1400026f2:	48 89 c1             	mov    %rax,%rcx
   1400026f5:	e8 d6 fd ff ff       	call   1400024d0 <cpu_set_flags>
   1400026fa:	e9 a5 03 00 00       	jmp    140002aa4 <proc_cb+0x46d>
   1400026ff:	0f b6 45 f7          	movzbl -0x9(%rbp),%eax
   140002703:	ba 01 00 00 00       	mov    $0x1,%edx
   140002708:	89 c1                	mov    %eax,%ecx
   14000270a:	d3 e2                	shl    %cl,%edx
   14000270c:	89 d0                	mov    %edx,%eax
   14000270e:	f7 d0                	not    %eax
   140002710:	89 c2                	mov    %eax,%edx
   140002712:	0f b6 45 f5          	movzbl -0xb(%rbp),%eax
   140002716:	21 d0                	and    %edx,%eax
   140002718:	88 45 f5             	mov    %al,-0xb(%rbp)
   14000271b:	0f b6 55 f5          	movzbl -0xb(%rbp),%edx
   14000271f:	8b 45 f8             	mov    -0x8(%rbp),%eax
   140002722:	89 c1                	mov    %eax,%ecx
   140002724:	e8 cc 1a 00 00       	call   1400041f5 <cpu_set_reg8>
   140002729:	e9 76 03 00 00       	jmp    140002aa4 <proc_cb+0x46d>
   14000272e:	0f b6 45 f7          	movzbl -0x9(%rbp),%eax
   140002732:	ba 01 00 00 00       	mov    $0x1,%edx
   140002737:	89 c1                	mov    %eax,%ecx
   140002739:	d3 e2                	shl    %cl,%edx
   14000273b:	89 d0                	mov    %edx,%eax
   14000273d:	89 c2                	mov    %eax,%edx
   14000273f:	0f b6 45 f5          	movzbl -0xb(%rbp),%eax
   140002743:	09 d0                	or     %edx,%eax
   140002745:	88 45 f5             	mov    %al,-0xb(%rbp)
   140002748:	0f b6 55 f5          	movzbl -0xb(%rbp),%edx
   14000274c:	8b 45 f8             	mov    -0x8(%rbp),%eax
   14000274f:	89 c1                	mov    %eax,%ecx
   140002751:	e8 9f 1a 00 00       	call   1400041f5 <cpu_set_reg8>
   140002756:	e9 49 03 00 00       	jmp    140002aa4 <proc_cb+0x46d>
   14000275b:	48 8b 45 20          	mov    0x20(%rbp),%rax
   14000275f:	0f b6 40 01          	movzbl 0x1(%rax),%eax
   140002763:	0f b6 c0             	movzbl %al,%eax
   140002766:	c1 f8 04             	sar    $0x4,%eax
   140002769:	88 45 f4             	mov    %al,-0xc(%rbp)
   14000276c:	80 65 f4 01          	andb   $0x1,-0xc(%rbp)
   140002770:	0f b6 45 f7          	movzbl -0x9(%rbp),%eax
   140002774:	83 f8 07             	cmp    $0x7,%eax
   140002777:	0f 87 ca 02 00 00    	ja     140002a47 <proc_cb+0x410>
   14000277d:	89 c0                	mov    %eax,%eax
   14000277f:	48 8d 14 85 00 00 00 	lea    0x0(,%rax,4),%rdx
   140002786:	00 
   140002787:	48 8d 05 36 6f 00 00 	lea    0x6f36(%rip),%rax        # 1400096c4 <.rdata+0x44>
   14000278e:	8b 04 02             	mov    (%rdx,%rax,1),%eax
   140002791:	48 98                	cltq
   140002793:	48 8d 15 2a 6f 00 00 	lea    0x6f2a(%rip),%rdx        # 1400096c4 <.rdata+0x44>
   14000279a:	48 01 d0             	add    %rdx,%rax
   14000279d:	ff e0                	jmp    *%rax
   14000279f:	c6 45 ff 00          	movb   $0x0,-0x1(%rbp)
   1400027a3:	0f b6 45 f5          	movzbl -0xb(%rbp),%eax
   1400027a7:	01 c0                	add    %eax,%eax
   1400027a9:	88 45 fe             	mov    %al,-0x2(%rbp)
   1400027ac:	0f b6 45 f5          	movzbl -0xb(%rbp),%eax
   1400027b0:	84 c0                	test   %al,%al
   1400027b2:	79 08                	jns    1400027bc <proc_cb+0x185>
   1400027b4:	80 4d fe 01          	orb    $0x1,-0x2(%rbp)
   1400027b8:	c6 45 ff 01          	movb   $0x1,-0x1(%rbp)
   1400027bc:	0f b6 55 fe          	movzbl -0x2(%rbp),%edx
   1400027c0:	8b 45 f8             	mov    -0x8(%rbp),%eax
   1400027c3:	89 c1                	mov    %eax,%ecx
   1400027c5:	e8 2b 1a 00 00       	call   1400041f5 <cpu_set_reg8>
   1400027ca:	0f b6 4d ff          	movzbl -0x1(%rbp),%ecx
   1400027ce:	80 7d fe 00          	cmpb   $0x0,-0x2(%rbp)
   1400027d2:	0f 94 c0             	sete   %al
   1400027d5:	0f b6 d0             	movzbl %al,%edx
   1400027d8:	48 8b 45 20          	mov    0x20(%rbp),%rax
   1400027dc:	89 4c 24 20          	mov    %ecx,0x20(%rsp)
   1400027e0:	41 b9 00 00 00 00    	mov    $0x0,%r9d
   1400027e6:	41 b8 00 00 00 00    	mov    $0x0,%r8d
   1400027ec:	48 89 c1             	mov    %rax,%rcx
   1400027ef:	e8 dc fc ff ff       	call   1400024d0 <cpu_set_flags>
   1400027f4:	e9 ab 02 00 00       	jmp    140002aa4 <proc_cb+0x46d>
   1400027f9:	0f b6 45 f5          	movzbl -0xb(%rbp),%eax
   1400027fd:	88 45 ee             	mov    %al,-0x12(%rbp)
   140002800:	d0 6d f5             	shrb   $1,-0xb(%rbp)
   140002803:	0f b6 45 ee          	movzbl -0x12(%rbp),%eax
   140002807:	c1 e0 07             	shl    $0x7,%eax
   14000280a:	89 c2                	mov    %eax,%edx
   14000280c:	0f b6 45 f5          	movzbl -0xb(%rbp),%eax
   140002810:	09 d0                	or     %edx,%eax
   140002812:	88 45 f5             	mov    %al,-0xb(%rbp)
   140002815:	0f b6 55 f5          	movzbl -0xb(%rbp),%edx
   140002819:	8b 45 f8             	mov    -0x8(%rbp),%eax
   14000281c:	89 c1                	mov    %eax,%ecx
   14000281e:	e8 d2 19 00 00       	call   1400041f5 <cpu_set_reg8>
   140002823:	0f b6 45 ee          	movzbl -0x12(%rbp),%eax
   140002827:	0f be c0             	movsbl %al,%eax
   14000282a:	83 e0 01             	and    $0x1,%eax
   14000282d:	89 c1                	mov    %eax,%ecx
   14000282f:	80 7d f5 00          	cmpb   $0x0,-0xb(%rbp)
   140002833:	0f 94 c0             	sete   %al
   140002836:	0f b6 d0             	movzbl %al,%edx
   140002839:	48 8b 45 20          	mov    0x20(%rbp),%rax
   14000283d:	89 4c 24 20          	mov    %ecx,0x20(%rsp)
   140002841:	41 b9 00 00 00 00    	mov    $0x0,%r9d
   140002847:	41 b8 00 00 00 00    	mov    $0x0,%r8d
   14000284d:	48 89 c1             	mov    %rax,%rcx
   140002850:	e8 7b fc ff ff       	call   1400024d0 <cpu_set_flags>
   140002855:	e9 4a 02 00 00       	jmp    140002aa4 <proc_cb+0x46d>
   14000285a:	0f b6 45 f5          	movzbl -0xb(%rbp),%eax
   14000285e:	88 45 ef             	mov    %al,-0x11(%rbp)
   140002861:	d0 65 f5             	shlb   $1,-0xb(%rbp)
   140002864:	0f b6 45 f4          	movzbl -0xc(%rbp),%eax
   140002868:	08 45 f5             	or     %al,-0xb(%rbp)
   14000286b:	0f b6 55 f5          	movzbl -0xb(%rbp),%edx
   14000286f:	8b 45 f8             	mov    -0x8(%rbp),%eax
   140002872:	89 c1                	mov    %eax,%ecx
   140002874:	e8 7c 19 00 00       	call   1400041f5 <cpu_set_reg8>
   140002879:	0f b6 45 ef          	movzbl -0x11(%rbp),%eax
   14000287d:	c0 e8 07             	shr    $0x7,%al
   140002880:	0f b6 c8             	movzbl %al,%ecx
   140002883:	80 7d f5 00          	cmpb   $0x0,-0xb(%rbp)
   140002887:	0f 94 c0             	sete   %al
   14000288a:	0f b6 d0             	movzbl %al,%edx
   14000288d:	48 8b 45 20          	mov    0x20(%rbp),%rax
   140002891:	89 4c 24 20          	mov    %ecx,0x20(%rsp)
   140002895:	41 b9 00 00 00 00    	mov    $0x0,%r9d
   14000289b:	41 b8 00 00 00 00    	mov    $0x0,%r8d
   1400028a1:	48 89 c1             	mov    %rax,%rcx
   1400028a4:	e8 27 fc ff ff       	call   1400024d0 <cpu_set_flags>
   1400028a9:	e9 f6 01 00 00       	jmp    140002aa4 <proc_cb+0x46d>
   1400028ae:	0f b6 45 f5          	movzbl -0xb(%rbp),%eax
   1400028b2:	88 45 f0             	mov    %al,-0x10(%rbp)
   1400028b5:	d0 6d f5             	shrb   $1,-0xb(%rbp)
   1400028b8:	0f b6 45 f4          	movzbl -0xc(%rbp),%eax
   1400028bc:	c1 e0 07             	shl    $0x7,%eax
   1400028bf:	89 c2                	mov    %eax,%edx
   1400028c1:	0f b6 45 f5          	movzbl -0xb(%rbp),%eax
   1400028c5:	09 d0                	or     %edx,%eax
   1400028c7:	88 45 f5             	mov    %al,-0xb(%rbp)
   1400028ca:	0f b6 55 f5          	movzbl -0xb(%rbp),%edx
   1400028ce:	8b 45 f8             	mov    -0x8(%rbp),%eax
   1400028d1:	89 c1                	mov    %eax,%ecx
   1400028d3:	e8 1d 19 00 00       	call   1400041f5 <cpu_set_reg8>
   1400028d8:	0f b6 45 f0          	movzbl -0x10(%rbp),%eax
   1400028dc:	0f be c0             	movsbl %al,%eax
   1400028df:	83 e0 01             	and    $0x1,%eax
   1400028e2:	89 c1                	mov    %eax,%ecx
   1400028e4:	80 7d f5 00          	cmpb   $0x0,-0xb(%rbp)
   1400028e8:	0f 94 c0             	sete   %al
   1400028eb:	0f b6 d0             	movzbl %al,%edx
   1400028ee:	48 8b 45 20          	mov    0x20(%rbp),%rax
   1400028f2:	89 4c 24 20          	mov    %ecx,0x20(%rsp)
   1400028f6:	41 b9 00 00 00 00    	mov    $0x0,%r9d
   1400028fc:	41 b8 00 00 00 00    	mov    $0x0,%r8d
   140002902:	48 89 c1             	mov    %rax,%rcx
   140002905:	e8 c6 fb ff ff       	call   1400024d0 <cpu_set_flags>
   14000290a:	e9 95 01 00 00       	jmp    140002aa4 <proc_cb+0x46d>
   14000290f:	0f b6 45 f5          	movzbl -0xb(%rbp),%eax
   140002913:	88 45 f1             	mov    %al,-0xf(%rbp)
   140002916:	d0 65 f5             	shlb   $1,-0xb(%rbp)
   140002919:	0f b6 55 f5          	movzbl -0xb(%rbp),%edx
   14000291d:	8b 45 f8             	mov    -0x8(%rbp),%eax
   140002920:	89 c1                	mov    %eax,%ecx
   140002922:	e8 ce 18 00 00       	call   1400041f5 <cpu_set_reg8>
   140002927:	0f b6 45 f1          	movzbl -0xf(%rbp),%eax
   14000292b:	c0 e8 07             	shr    $0x7,%al
   14000292e:	0f b6 c8             	movzbl %al,%ecx
   140002931:	80 7d f5 00          	cmpb   $0x0,-0xb(%rbp)
   140002935:	0f 94 c0             	sete   %al
   140002938:	0f b6 d0             	movzbl %al,%edx
   14000293b:	48 8b 45 20          	mov    0x20(%rbp),%rax
   14000293f:	89 4c 24 20          	mov    %ecx,0x20(%rsp)
   140002943:	41 b9 00 00 00 00    	mov    $0x0,%r9d
   140002949:	41 b8 00 00 00 00    	mov    $0x0,%r8d
   14000294f:	48 89 c1             	mov    %rax,%rcx
   140002952:	e8 79 fb ff ff       	call   1400024d0 <cpu_set_flags>
   140002957:	e9 48 01 00 00       	jmp    140002aa4 <proc_cb+0x46d>
   14000295c:	0f b6 45 f5          	movzbl -0xb(%rbp),%eax
   140002960:	d0 f8                	sar    $1,%al
   140002962:	88 45 f2             	mov    %al,-0xe(%rbp)
   140002965:	0f b6 55 f2          	movzbl -0xe(%rbp),%edx
   140002969:	8b 45 f8             	mov    -0x8(%rbp),%eax
   14000296c:	89 c1                	mov    %eax,%ecx
   14000296e:	e8 82 18 00 00       	call   1400041f5 <cpu_set_reg8>
   140002973:	0f b6 45 f5          	movzbl -0xb(%rbp),%eax
   140002977:	0f be c0             	movsbl %al,%eax
   14000297a:	83 e0 01             	and    $0x1,%eax
   14000297d:	89 c1                	mov    %eax,%ecx
   14000297f:	80 7d f2 00          	cmpb   $0x0,-0xe(%rbp)
   140002983:	0f 94 c0             	sete   %al
   140002986:	0f b6 d0             	movzbl %al,%edx
   140002989:	48 8b 45 20          	mov    0x20(%rbp),%rax
   14000298d:	89 4c 24 20          	mov    %ecx,0x20(%rsp)
   140002991:	41 b9 00 00 00 00    	mov    $0x0,%r9d
   140002997:	41 b8 00 00 00 00    	mov    $0x0,%r8d
   14000299d:	48 89 c1             	mov    %rax,%rcx
   1400029a0:	e8 2b fb ff ff       	call   1400024d0 <cpu_set_flags>
   1400029a5:	e9 fa 00 00 00       	jmp    140002aa4 <proc_cb+0x46d>
   1400029aa:	0f b6 45 f5          	movzbl -0xb(%rbp),%eax
   1400029ae:	c0 e8 04             	shr    $0x4,%al
   1400029b1:	89 c2                	mov    %eax,%edx
   1400029b3:	0f b6 45 f5          	movzbl -0xb(%rbp),%eax
   1400029b7:	c1 e0 04             	shl    $0x4,%eax
   1400029ba:	09 d0                	or     %edx,%eax
   1400029bc:	88 45 f5             	mov    %al,-0xb(%rbp)
   1400029bf:	0f b6 55 f5          	movzbl -0xb(%rbp),%edx
   1400029c3:	8b 45 f8             	mov    -0x8(%rbp),%eax
   1400029c6:	89 c1                	mov    %eax,%ecx
   1400029c8:	e8 28 18 00 00       	call   1400041f5 <cpu_set_reg8>
   1400029cd:	80 7d f5 00          	cmpb   $0x0,-0xb(%rbp)
   1400029d1:	0f 94 c0             	sete   %al
   1400029d4:	0f b6 d0             	movzbl %al,%edx
   1400029d7:	48 8b 45 20          	mov    0x20(%rbp),%rax
   1400029db:	c7 44 24 20 00 00 00 	movl   $0x0,0x20(%rsp)
   1400029e2:	00 
   1400029e3:	41 b9 00 00 00 00    	mov    $0x0,%r9d
   1400029e9:	41 b8 00 00 00 00    	mov    $0x0,%r8d
   1400029ef:	48 89 c1             	mov    %rax,%rcx
   1400029f2:	e8 d9 fa ff ff       	call   1400024d0 <cpu_set_flags>
   1400029f7:	e9 a8 00 00 00       	jmp    140002aa4 <proc_cb+0x46d>
   1400029fc:	0f b6 45 f5          	movzbl -0xb(%rbp),%eax
   140002a00:	d0 e8                	shr    $1,%al
   140002a02:	88 45 f3             	mov    %al,-0xd(%rbp)
   140002a05:	0f b6 55 f3          	movzbl -0xd(%rbp),%edx
   140002a09:	8b 45 f8             	mov    -0x8(%rbp),%eax
   140002a0c:	89 c1                	mov    %eax,%ecx
   140002a0e:	e8 e2 17 00 00       	call   1400041f5 <cpu_set_reg8>
   140002a13:	0f b6 45 f5          	movzbl -0xb(%rbp),%eax
   140002a17:	0f be c0             	movsbl %al,%eax
   140002a1a:	83 e0 01             	and    $0x1,%eax
   140002a1d:	89 c1                	mov    %eax,%ecx
   140002a1f:	80 7d f3 00          	cmpb   $0x0,-0xd(%rbp)
   140002a23:	0f 94 c0             	sete   %al
   140002a26:	0f b6 d0             	movzbl %al,%edx
   140002a29:	48 8b 45 20          	mov    0x20(%rbp),%rax
   140002a2d:	89 4c 24 20          	mov    %ecx,0x20(%rsp)
   140002a31:	41 b9 00 00 00 00    	mov    $0x0,%r9d
   140002a37:	41 b8 00 00 00 00    	mov    $0x0,%r8d
   140002a3d:	48 89 c1             	mov    %rax,%rcx
   140002a40:	e8 8b fa ff ff       	call   1400024d0 <cpu_set_flags>
   140002a45:	eb 5d                	jmp    140002aa4 <proc_cb+0x46d>
   140002a47:	0f b6 5d fd          	movzbl -0x3(%rbp),%ebx
   140002a4b:	b9 02 00 00 00       	mov    $0x2,%ecx
   140002a50:	48 8b 05 b9 d9 00 00 	mov    0xd9b9(%rip),%rax        # 140010410 <__imp___acrt_iob_func>
   140002a57:	ff d0                	call   *%rax
   140002a59:	48 89 c1             	mov    %rax,%rcx
   140002a5c:	41 89 d8             	mov    %ebx,%r8d
   140002a5f:	48 8d 05 2f 6c 00 00 	lea    0x6c2f(%rip),%rax        # 140009695 <.rdata+0x15>
   140002a66:	48 89 c2             	mov    %rax,%rdx
   140002a69:	e8 32 32 00 00       	call   140005ca0 <fprintf>
   140002a6e:	b9 02 00 00 00       	mov    $0x2,%ecx
   140002a73:	48 8b 05 96 d9 00 00 	mov    0xd996(%rip),%rax        # 140010410 <__imp___acrt_iob_func>
   140002a7a:	ff d0                	call   *%rax
   140002a7c:	49 89 c1             	mov    %rax,%r9
   140002a7f:	41 b8 14 00 00 00    	mov    $0x14,%r8d
   140002a85:	ba 01 00 00 00       	mov    $0x1,%edx
   140002a8a:	48 8d 05 1c 6c 00 00 	lea    0x6c1c(%rip),%rax        # 1400096ad <.rdata+0x2d>
   140002a91:	48 89 c1             	mov    %rax,%rcx
   140002a94:	e8 47 33 00 00       	call   140005de0 <fwrite>
   140002a99:	b9 fb ff ff ff       	mov    $0xfffffffb,%ecx
   140002a9e:	e8 b5 33 00 00       	call   140005e58 <exit>
   140002aa3:	90                   	nop
   140002aa4:	48 83 c4 58          	add    $0x58,%rsp
   140002aa8:	5b                   	pop    %rbx
   140002aa9:	5d                   	pop    %rbp
   140002aaa:	c3                   	ret

0000000140002aab <proc_rlca>:
   140002aab:	55                   	push   %rbp
   140002aac:	48 89 e5             	mov    %rsp,%rbp
   140002aaf:	48 83 ec 40          	sub    $0x40,%rsp
   140002ab3:	48 89 4d 10          	mov    %rcx,0x10(%rbp)
   140002ab7:	48 8b 45 10          	mov    0x10(%rbp),%rax
   140002abb:	0f b6 00             	movzbl (%rax),%eax
   140002abe:	88 45 ff             	mov    %al,-0x1(%rbp)
   140002ac1:	0f b6 45 ff          	movzbl -0x1(%rbp),%eax
   140002ac5:	c0 e8 07             	shr    $0x7,%al
   140002ac8:	83 e0 01             	and    $0x1,%eax
   140002acb:	88 45 fe             	mov    %al,-0x2(%rbp)
   140002ace:	0f b6 45 ff          	movzbl -0x1(%rbp),%eax
   140002ad2:	8d 14 00             	lea    (%rax,%rax,1),%edx
   140002ad5:	0f b6 45 fe          	movzbl -0x2(%rbp),%eax
   140002ad9:	09 d0                	or     %edx,%eax
   140002adb:	88 45 ff             	mov    %al,-0x1(%rbp)
   140002ade:	48 8b 45 10          	mov    0x10(%rbp),%rax
   140002ae2:	0f b6 55 ff          	movzbl -0x1(%rbp),%edx
   140002ae6:	88 10                	mov    %dl,(%rax)
   140002ae8:	0f b6 55 fe          	movzbl -0x2(%rbp),%edx
   140002aec:	48 8b 45 10          	mov    0x10(%rbp),%rax
   140002af0:	89 54 24 20          	mov    %edx,0x20(%rsp)
   140002af4:	41 b9 00 00 00 00    	mov    $0x0,%r9d
   140002afa:	41 b8 00 00 00 00    	mov    $0x0,%r8d
   140002b00:	ba 00 00 00 00       	mov    $0x0,%edx
   140002b05:	48 89 c1             	mov    %rax,%rcx
   140002b08:	e8 c3 f9 ff ff       	call   1400024d0 <cpu_set_flags>
   140002b0d:	90                   	nop
   140002b0e:	48 83 c4 40          	add    $0x40,%rsp
   140002b12:	5d                   	pop    %rbp
   140002b13:	c3                   	ret

0000000140002b14 <proc_rrca>:
   140002b14:	55                   	push   %rbp
   140002b15:	48 89 e5             	mov    %rsp,%rbp
   140002b18:	48 83 ec 40          	sub    $0x40,%rsp
   140002b1c:	48 89 4d 10          	mov    %rcx,0x10(%rbp)
   140002b20:	48 8b 45 10          	mov    0x10(%rbp),%rax
   140002b24:	0f b6 00             	movzbl (%rax),%eax
   140002b27:	83 e0 01             	and    $0x1,%eax
   140002b2a:	88 45 ff             	mov    %al,-0x1(%rbp)
   140002b2d:	48 8b 45 10          	mov    0x10(%rbp),%rax
   140002b31:	0f b6 00             	movzbl (%rax),%eax
   140002b34:	d0 e8                	shr    $1,%al
   140002b36:	89 c2                	mov    %eax,%edx
   140002b38:	48 8b 45 10          	mov    0x10(%rbp),%rax
   140002b3c:	88 10                	mov    %dl,(%rax)
   140002b3e:	48 8b 45 10          	mov    0x10(%rbp),%rax
   140002b42:	0f b6 00             	movzbl (%rax),%eax
   140002b45:	89 c2                	mov    %eax,%edx
   140002b47:	0f b6 45 ff          	movzbl -0x1(%rbp),%eax
   140002b4b:	c1 e0 07             	shl    $0x7,%eax
   140002b4e:	09 d0                	or     %edx,%eax
   140002b50:	89 c2                	mov    %eax,%edx
   140002b52:	48 8b 45 10          	mov    0x10(%rbp),%rax
   140002b56:	88 10                	mov    %dl,(%rax)
   140002b58:	0f b6 45 ff          	movzbl -0x1(%rbp),%eax
   140002b5c:	0f be d0             	movsbl %al,%edx
   140002b5f:	48 8b 45 10          	mov    0x10(%rbp),%rax
   140002b63:	89 54 24 20          	mov    %edx,0x20(%rsp)
   140002b67:	41 b9 00 00 00 00    	mov    $0x0,%r9d
   140002b6d:	41 b8 00 00 00 00    	mov    $0x0,%r8d
   140002b73:	ba 00 00 00 00       	mov    $0x0,%edx
   140002b78:	48 89 c1             	mov    %rax,%rcx
   140002b7b:	e8 50 f9 ff ff       	call   1400024d0 <cpu_set_flags>
   140002b80:	90                   	nop
   140002b81:	48 83 c4 40          	add    $0x40,%rsp
   140002b85:	5d                   	pop    %rbp
   140002b86:	c3                   	ret

0000000140002b87 <proc_rla>:
   140002b87:	55                   	push   %rbp
   140002b88:	48 89 e5             	mov    %rsp,%rbp
   140002b8b:	48 83 ec 40          	sub    $0x40,%rsp
   140002b8f:	48 89 4d 10          	mov    %rcx,0x10(%rbp)
   140002b93:	48 8b 45 10          	mov    0x10(%rbp),%rax
   140002b97:	0f b6 00             	movzbl (%rax),%eax
   140002b9a:	88 45 ff             	mov    %al,-0x1(%rbp)
   140002b9d:	48 8b 45 10          	mov    0x10(%rbp),%rax
   140002ba1:	0f b6 40 01          	movzbl 0x1(%rax),%eax
   140002ba5:	0f b6 c0             	movzbl %al,%eax
   140002ba8:	c1 f8 04             	sar    $0x4,%eax
   140002bab:	83 e0 01             	and    $0x1,%eax
   140002bae:	88 45 fe             	mov    %al,-0x2(%rbp)
   140002bb1:	0f b6 45 ff          	movzbl -0x1(%rbp),%eax
   140002bb5:	c0 e8 07             	shr    $0x7,%al
   140002bb8:	88 45 fd             	mov    %al,-0x3(%rbp)
   140002bbb:	0f b6 45 ff          	movzbl -0x1(%rbp),%eax
   140002bbf:	8d 14 00             	lea    (%rax,%rax,1),%edx
   140002bc2:	0f b6 45 fe          	movzbl -0x2(%rbp),%eax
   140002bc6:	09 d0                	or     %edx,%eax
   140002bc8:	89 c2                	mov    %eax,%edx
   140002bca:	48 8b 45 10          	mov    0x10(%rbp),%rax
   140002bce:	88 10                	mov    %dl,(%rax)
   140002bd0:	0f b6 45 fd          	movzbl -0x3(%rbp),%eax
   140002bd4:	0f be d0             	movsbl %al,%edx
   140002bd7:	48 8b 45 10          	mov    0x10(%rbp),%rax
   140002bdb:	89 54 24 20          	mov    %edx,0x20(%rsp)
   140002bdf:	41 b9 00 00 00 00    	mov    $0x0,%r9d
   140002be5:	41 b8 00 00 00 00    	mov    $0x0,%r8d
   140002beb:	ba 00 00 00 00       	mov    $0x0,%edx
   140002bf0:	48 89 c1             	mov    %rax,%rcx
   140002bf3:	e8 d8 f8 ff ff       	call   1400024d0 <cpu_set_flags>
   140002bf8:	90                   	nop
   140002bf9:	48 83 c4 40          	add    $0x40,%rsp
   140002bfd:	5d                   	pop    %rbp
   140002bfe:	c3                   	ret

0000000140002bff <proc_stop>:
   140002bff:	55                   	push   %rbp
   140002c00:	48 89 e5             	mov    %rsp,%rbp
   140002c03:	48 83 ec 20          	sub    $0x20,%rsp
   140002c07:	48 89 4d 10          	mov    %rcx,0x10(%rbp)
   140002c0b:	b9 02 00 00 00       	mov    $0x2,%ecx
   140002c10:	48 8b 05 f9 d7 00 00 	mov    0xd7f9(%rip),%rax        # 140010410 <__imp___acrt_iob_func>
   140002c17:	ff d0                	call   *%rax
   140002c19:	49 89 c1             	mov    %rax,%r9
   140002c1c:	41 b8 0a 00 00 00    	mov    $0xa,%r8d
   140002c22:	ba 01 00 00 00       	mov    $0x1,%edx
   140002c27:	48 8d 05 b6 6a 00 00 	lea    0x6ab6(%rip),%rax        # 1400096e4 <.rdata+0x64>
   140002c2e:	48 89 c1             	mov    %rax,%rcx
   140002c31:	e8 aa 31 00 00       	call   140005de0 <fwrite>
   140002c36:	b9 02 00 00 00       	mov    $0x2,%ecx
   140002c3b:	48 8b 05 ce d7 00 00 	mov    0xd7ce(%rip),%rax        # 140010410 <__imp___acrt_iob_func>
   140002c42:	ff d0                	call   *%rax
   140002c44:	49 89 c1             	mov    %rax,%r9
   140002c47:	41 b8 14 00 00 00    	mov    $0x14,%r8d
   140002c4d:	ba 01 00 00 00       	mov    $0x1,%edx
   140002c52:	48 8d 05 54 6a 00 00 	lea    0x6a54(%rip),%rax        # 1400096ad <.rdata+0x2d>
   140002c59:	48 89 c1             	mov    %rax,%rcx
   140002c5c:	e8 7f 31 00 00       	call   140005de0 <fwrite>
   140002c61:	b9 fb ff ff ff       	mov    $0xfffffffb,%ecx
   140002c66:	e8 ed 31 00 00       	call   140005e58 <exit>
   140002c6b:	90                   	nop

0000000140002c6c <proc_daa>:
   140002c6c:	55                   	push   %rbp
   140002c6d:	48 89 e5             	mov    %rsp,%rbp
   140002c70:	48 83 ec 40          	sub    $0x40,%rsp
   140002c74:	48 89 4d 10          	mov    %rcx,0x10(%rbp)
   140002c78:	c6 45 ff 00          	movb   $0x0,-0x1(%rbp)
   140002c7c:	c7 45 f8 00 00 00 00 	movl   $0x0,-0x8(%rbp)
   140002c83:	48 8b 45 10          	mov    0x10(%rbp),%rax
   140002c87:	0f b6 40 01          	movzbl 0x1(%rax),%eax
   140002c8b:	0f b6 c0             	movzbl %al,%eax
   140002c8e:	c1 f8 05             	sar    $0x5,%eax
   140002c91:	83 e0 01             	and    $0x1,%eax
   140002c94:	84 c0                	test   %al,%al
   140002c96:	75 24                	jne    140002cbc <proc_daa+0x50>
   140002c98:	48 8b 45 10          	mov    0x10(%rbp),%rax
   140002c9c:	0f b6 40 01          	movzbl 0x1(%rax),%eax
   140002ca0:	0f b6 c0             	movzbl %al,%eax
   140002ca3:	83 e0 40             	and    $0x40,%eax
   140002ca6:	85 c0                	test   %eax,%eax
   140002ca8:	75 16                	jne    140002cc0 <proc_daa+0x54>
   140002caa:	48 8b 45 10          	mov    0x10(%rbp),%rax
   140002cae:	0f b6 00             	movzbl (%rax),%eax
   140002cb1:	0f b6 c0             	movzbl %al,%eax
   140002cb4:	83 e0 0f             	and    $0xf,%eax
   140002cb7:	83 f8 09             	cmp    $0x9,%eax
   140002cba:	7e 04                	jle    140002cc0 <proc_daa+0x54>
   140002cbc:	c6 45 ff 06          	movb   $0x6,-0x1(%rbp)
   140002cc0:	48 8b 45 10          	mov    0x10(%rbp),%rax
   140002cc4:	0f b6 40 01          	movzbl 0x1(%rax),%eax
   140002cc8:	0f b6 c0             	movzbl %al,%eax
   140002ccb:	c1 f8 04             	sar    $0x4,%eax
   140002cce:	83 e0 01             	and    $0x1,%eax
   140002cd1:	84 c0                	test   %al,%al
   140002cd3:	75 1d                	jne    140002cf2 <proc_daa+0x86>
   140002cd5:	48 8b 45 10          	mov    0x10(%rbp),%rax
   140002cd9:	0f b6 40 01          	movzbl 0x1(%rax),%eax
   140002cdd:	0f b6 c0             	movzbl %al,%eax
   140002ce0:	83 e0 40             	and    $0x40,%eax
   140002ce3:	85 c0                	test   %eax,%eax
   140002ce5:	75 16                	jne    140002cfd <proc_daa+0x91>
   140002ce7:	48 8b 45 10          	mov    0x10(%rbp),%rax
   140002ceb:	0f b6 00             	movzbl (%rax),%eax
   140002cee:	3c 99                	cmp    $0x99,%al
   140002cf0:	76 0b                	jbe    140002cfd <proc_daa+0x91>
   140002cf2:	80 4d ff 60          	orb    $0x60,-0x1(%rbp)
   140002cf6:	c7 45 f8 01 00 00 00 	movl   $0x1,-0x8(%rbp)
   140002cfd:	48 8b 45 10          	mov    0x10(%rbp),%rax
   140002d01:	0f b6 10             	movzbl (%rax),%edx
   140002d04:	48 8b 45 10          	mov    0x10(%rbp),%rax
   140002d08:	0f b6 40 01          	movzbl 0x1(%rax),%eax
   140002d0c:	0f b6 c0             	movzbl %al,%eax
   140002d0f:	c1 f8 06             	sar    $0x6,%eax
   140002d12:	83 e0 01             	and    $0x1,%eax
   140002d15:	84 c0                	test   %al,%al
   140002d17:	74 08                	je     140002d21 <proc_daa+0xb5>
   140002d19:	0f b6 45 ff          	movzbl -0x1(%rbp),%eax
   140002d1d:	f7 d8                	neg    %eax
   140002d1f:	eb 04                	jmp    140002d25 <proc_daa+0xb9>
   140002d21:	0f b6 45 ff          	movzbl -0x1(%rbp),%eax
   140002d25:	01 c2                	add    %eax,%edx
   140002d27:	48 8b 45 10          	mov    0x10(%rbp),%rax
   140002d2b:	88 10                	mov    %dl,(%rax)
   140002d2d:	8b 45 f8             	mov    -0x8(%rbp),%eax
   140002d30:	0f be c8             	movsbl %al,%ecx
   140002d33:	48 8b 45 10          	mov    0x10(%rbp),%rax
   140002d37:	0f b6 00             	movzbl (%rax),%eax
   140002d3a:	84 c0                	test   %al,%al
   140002d3c:	0f 94 c0             	sete   %al
   140002d3f:	0f b6 d0             	movzbl %al,%edx
   140002d42:	48 8b 45 10          	mov    0x10(%rbp),%rax
   140002d46:	89 4c 24 20          	mov    %ecx,0x20(%rsp)
   140002d4a:	41 b9 00 00 00 00    	mov    $0x0,%r9d
   140002d50:	41 b8 ff ff ff ff    	mov    $0xffffffff,%r8d
   140002d56:	48 89 c1             	mov    %rax,%rcx
   140002d59:	e8 72 f7 ff ff       	call   1400024d0 <cpu_set_flags>
   140002d5e:	90                   	nop
   140002d5f:	48 83 c4 40          	add    $0x40,%rsp
   140002d63:	5d                   	pop    %rbp
   140002d64:	c3                   	ret

0000000140002d65 <proc_cpl>:
   140002d65:	55                   	push   %rbp
   140002d66:	48 89 e5             	mov    %rsp,%rbp
   140002d69:	48 83 ec 30          	sub    $0x30,%rsp
   140002d6d:	48 89 4d 10          	mov    %rcx,0x10(%rbp)
   140002d71:	48 8b 45 10          	mov    0x10(%rbp),%rax
   140002d75:	0f b6 00             	movzbl (%rax),%eax
   140002d78:	f7 d0                	not    %eax
   140002d7a:	89 c2                	mov    %eax,%edx
   140002d7c:	48 8b 45 10          	mov    0x10(%rbp),%rax
   140002d80:	88 10                	mov    %dl,(%rax)
   140002d82:	48 8b 45 10          	mov    0x10(%rbp),%rax
   140002d86:	c7 44 24 20 ff ff ff 	movl   $0xffffffff,0x20(%rsp)
   140002d8d:	ff 
   140002d8e:	41 b9 01 00 00 00    	mov    $0x1,%r9d
   140002d94:	41 b8 01 00 00 00    	mov    $0x1,%r8d
   140002d9a:	ba ff ff ff ff       	mov    $0xffffffff,%edx
   140002d9f:	48 89 c1             	mov    %rax,%rcx
   140002da2:	e8 29 f7 ff ff       	call   1400024d0 <cpu_set_flags>
   140002da7:	90                   	nop
   140002da8:	48 83 c4 30          	add    $0x30,%rsp
   140002dac:	5d                   	pop    %rbp
   140002dad:	c3                   	ret

0000000140002dae <proc_scf>:
   140002dae:	55                   	push   %rbp
   140002daf:	48 89 e5             	mov    %rsp,%rbp
   140002db2:	48 83 ec 30          	sub    $0x30,%rsp
   140002db6:	48 89 4d 10          	mov    %rcx,0x10(%rbp)
   140002dba:	48 8b 45 10          	mov    0x10(%rbp),%rax
   140002dbe:	c7 44 24 20 01 00 00 	movl   $0x1,0x20(%rsp)
   140002dc5:	00 
   140002dc6:	41 b9 00 00 00 00    	mov    $0x0,%r9d
   140002dcc:	41 b8 00 00 00 00    	mov    $0x0,%r8d
   140002dd2:	ba ff ff ff ff       	mov    $0xffffffff,%edx
   140002dd7:	48 89 c1             	mov    %rax,%rcx
   140002dda:	e8 f1 f6 ff ff       	call   1400024d0 <cpu_set_flags>
   140002ddf:	90                   	nop
   140002de0:	48 83 c4 30          	add    $0x30,%rsp
   140002de4:	5d                   	pop    %rbp
   140002de5:	c3                   	ret

0000000140002de6 <proc_ccf>:
   140002de6:	55                   	push   %rbp
   140002de7:	48 89 e5             	mov    %rsp,%rbp
   140002dea:	48 83 ec 30          	sub    $0x30,%rsp
   140002dee:	48 89 4d 10          	mov    %rcx,0x10(%rbp)
   140002df2:	48 8b 45 10          	mov    0x10(%rbp),%rax
   140002df6:	0f b6 40 01          	movzbl 0x1(%rax),%eax
   140002dfa:	0f b6 c0             	movzbl %al,%eax
   140002dfd:	c1 f8 04             	sar    $0x4,%eax
   140002e00:	f7 d0                	not    %eax
   140002e02:	0f be c0             	movsbl %al,%eax
   140002e05:	83 e0 01             	and    $0x1,%eax
   140002e08:	89 c2                	mov    %eax,%edx
   140002e0a:	48 8b 45 10          	mov    0x10(%rbp),%rax
   140002e0e:	89 54 24 20          	mov    %edx,0x20(%rsp)
   140002e12:	41 b9 00 00 00 00    	mov    $0x0,%r9d
   140002e18:	41 b8 00 00 00 00    	mov    $0x0,%r8d
   140002e1e:	ba ff ff ff ff       	mov    $0xffffffff,%edx
   140002e23:	48 89 c1             	mov    %rax,%rcx
   140002e26:	e8 a5 f6 ff ff       	call   1400024d0 <cpu_set_flags>
   140002e2b:	90                   	nop
   140002e2c:	48 83 c4 30          	add    $0x30,%rsp
   140002e30:	5d                   	pop    %rbp
   140002e31:	c3                   	ret

0000000140002e32 <proc_halt>:
   140002e32:	55                   	push   %rbp
   140002e33:	48 89 e5             	mov    %rsp,%rbp
   140002e36:	48 89 4d 10          	mov    %rcx,0x10(%rbp)
   140002e3a:	48 8b 45 10          	mov    0x10(%rbp),%rax
   140002e3e:	c6 40 20 01          	movb   $0x1,0x20(%rax)
   140002e42:	90                   	nop
   140002e43:	5d                   	pop    %rbp
   140002e44:	c3                   	ret

0000000140002e45 <proc_rra>:
   140002e45:	55                   	push   %rbp
   140002e46:	48 89 e5             	mov    %rsp,%rbp
   140002e49:	48 83 ec 40          	sub    $0x40,%rsp
   140002e4d:	48 89 4d 10          	mov    %rcx,0x10(%rbp)
   140002e51:	48 8b 45 10          	mov    0x10(%rbp),%rax
   140002e55:	0f b6 40 01          	movzbl 0x1(%rax),%eax
   140002e59:	0f b6 c0             	movzbl %al,%eax
   140002e5c:	c1 f8 04             	sar    $0x4,%eax
   140002e5f:	83 e0 01             	and    $0x1,%eax
   140002e62:	88 45 ff             	mov    %al,-0x1(%rbp)
   140002e65:	48 8b 45 10          	mov    0x10(%rbp),%rax
   140002e69:	0f b6 00             	movzbl (%rax),%eax
   140002e6c:	83 e0 01             	and    $0x1,%eax
   140002e6f:	88 45 fe             	mov    %al,-0x2(%rbp)
   140002e72:	48 8b 45 10          	mov    0x10(%rbp),%rax
   140002e76:	0f b6 00             	movzbl (%rax),%eax
   140002e79:	d0 e8                	shr    $1,%al
   140002e7b:	89 c2                	mov    %eax,%edx
   140002e7d:	48 8b 45 10          	mov    0x10(%rbp),%rax
   140002e81:	88 10                	mov    %dl,(%rax)
   140002e83:	48 8b 45 10          	mov    0x10(%rbp),%rax
   140002e87:	0f b6 00             	movzbl (%rax),%eax
   140002e8a:	89 c2                	mov    %eax,%edx
   140002e8c:	0f b6 45 ff          	movzbl -0x1(%rbp),%eax
   140002e90:	c1 e0 07             	shl    $0x7,%eax
   140002e93:	09 d0                	or     %edx,%eax
   140002e95:	89 c2                	mov    %eax,%edx
   140002e97:	48 8b 45 10          	mov    0x10(%rbp),%rax
   140002e9b:	88 10                	mov    %dl,(%rax)
   140002e9d:	0f b6 45 fe          	movzbl -0x2(%rbp),%eax
   140002ea1:	0f be d0             	movsbl %al,%edx
   140002ea4:	48 8b 45 10          	mov    0x10(%rbp),%rax
   140002ea8:	89 54 24 20          	mov    %edx,0x20(%rsp)
   140002eac:	41 b9 00 00 00 00    	mov    $0x0,%r9d
   140002eb2:	41 b8 00 00 00 00    	mov    $0x0,%r8d
   140002eb8:	ba 00 00 00 00       	mov    $0x0,%edx
   140002ebd:	48 89 c1             	mov    %rax,%rcx
   140002ec0:	e8 0b f6 ff ff       	call   1400024d0 <cpu_set_flags>
   140002ec5:	90                   	nop
   140002ec6:	48 83 c4 40          	add    $0x40,%rsp
   140002eca:	5d                   	pop    %rbp
   140002ecb:	c3                   	ret

0000000140002ecc <proc_and>:
   140002ecc:	55                   	push   %rbp
   140002ecd:	48 89 e5             	mov    %rsp,%rbp
   140002ed0:	48 83 ec 30          	sub    $0x30,%rsp
   140002ed4:	48 89 4d 10          	mov    %rcx,0x10(%rbp)
   140002ed8:	48 8b 45 10          	mov    0x10(%rbp),%rax
   140002edc:	0f b6 10             	movzbl (%rax),%edx
   140002edf:	48 8b 45 10          	mov    0x10(%rbp),%rax
   140002ee3:	0f b7 40 0c          	movzwl 0xc(%rax),%eax
   140002ee7:	21 c2                	and    %eax,%edx
   140002ee9:	48 8b 45 10          	mov    0x10(%rbp),%rax
   140002eed:	88 10                	mov    %dl,(%rax)
   140002eef:	48 8b 45 10          	mov    0x10(%rbp),%rax
   140002ef3:	0f b6 00             	movzbl (%rax),%eax
   140002ef6:	84 c0                	test   %al,%al
   140002ef8:	0f 94 c0             	sete   %al
   140002efb:	0f b6 d0             	movzbl %al,%edx
   140002efe:	48 8b 45 10          	mov    0x10(%rbp),%rax
   140002f02:	c7 44 24 20 00 00 00 	movl   $0x0,0x20(%rsp)
   140002f09:	00 
   140002f0a:	41 b9 01 00 00 00    	mov    $0x1,%r9d
   140002f10:	41 b8 00 00 00 00    	mov    $0x0,%r8d
   140002f16:	48 89 c1             	mov    %rax,%rcx
   140002f19:	e8 b2 f5 ff ff       	call   1400024d0 <cpu_set_flags>
   140002f1e:	90                   	nop
   140002f1f:	48 83 c4 30          	add    $0x30,%rsp
   140002f23:	5d                   	pop    %rbp
   140002f24:	c3                   	ret

0000000140002f25 <proc_xor>:
   140002f25:	55                   	push   %rbp
   140002f26:	48 89 e5             	mov    %rsp,%rbp
   140002f29:	48 83 ec 30          	sub    $0x30,%rsp
   140002f2d:	48 89 4d 10          	mov    %rcx,0x10(%rbp)
   140002f31:	48 8b 45 10          	mov    0x10(%rbp),%rax
   140002f35:	0f b6 00             	movzbl (%rax),%eax
   140002f38:	89 c2                	mov    %eax,%edx
   140002f3a:	48 8b 45 10          	mov    0x10(%rbp),%rax
   140002f3e:	0f b7 40 0c          	movzwl 0xc(%rax),%eax
   140002f42:	31 d0                	xor    %edx,%eax
   140002f44:	89 c2                	mov    %eax,%edx
   140002f46:	48 8b 45 10          	mov    0x10(%rbp),%rax
   140002f4a:	88 10                	mov    %dl,(%rax)
   140002f4c:	48 8b 45 10          	mov    0x10(%rbp),%rax
   140002f50:	0f b6 00             	movzbl (%rax),%eax
   140002f53:	84 c0                	test   %al,%al
   140002f55:	0f 94 c0             	sete   %al
   140002f58:	0f b6 d0             	movzbl %al,%edx
   140002f5b:	48 8b 45 10          	mov    0x10(%rbp),%rax
   140002f5f:	c7 44 24 20 00 00 00 	movl   $0x0,0x20(%rsp)
   140002f66:	00 
   140002f67:	41 b9 00 00 00 00    	mov    $0x0,%r9d
   140002f6d:	41 b8 00 00 00 00    	mov    $0x0,%r8d
   140002f73:	48 89 c1             	mov    %rax,%rcx
   140002f76:	e8 55 f5 ff ff       	call   1400024d0 <cpu_set_flags>
   140002f7b:	90                   	nop
   140002f7c:	48 83 c4 30          	add    $0x30,%rsp
   140002f80:	5d                   	pop    %rbp
   140002f81:	c3                   	ret

0000000140002f82 <proc_or>:
   140002f82:	55                   	push   %rbp
   140002f83:	48 89 e5             	mov    %rsp,%rbp
   140002f86:	48 83 ec 30          	sub    $0x30,%rsp
   140002f8a:	48 89 4d 10          	mov    %rcx,0x10(%rbp)
   140002f8e:	48 8b 45 10          	mov    0x10(%rbp),%rax
   140002f92:	0f b6 00             	movzbl (%rax),%eax
   140002f95:	89 c2                	mov    %eax,%edx
   140002f97:	48 8b 45 10          	mov    0x10(%rbp),%rax
   140002f9b:	0f b7 40 0c          	movzwl 0xc(%rax),%eax
   140002f9f:	09 d0                	or     %edx,%eax
   140002fa1:	89 c2                	mov    %eax,%edx
   140002fa3:	48 8b 45 10          	mov    0x10(%rbp),%rax
   140002fa7:	88 10                	mov    %dl,(%rax)
   140002fa9:	48 8b 45 10          	mov    0x10(%rbp),%rax
   140002fad:	0f b6 00             	movzbl (%rax),%eax
   140002fb0:	84 c0                	test   %al,%al
   140002fb2:	0f 94 c0             	sete   %al
   140002fb5:	0f b6 d0             	movzbl %al,%edx
   140002fb8:	48 8b 45 10          	mov    0x10(%rbp),%rax
   140002fbc:	c7 44 24 20 00 00 00 	movl   $0x0,0x20(%rsp)
   140002fc3:	00 
   140002fc4:	41 b9 00 00 00 00    	mov    $0x0,%r9d
   140002fca:	41 b8 00 00 00 00    	mov    $0x0,%r8d
   140002fd0:	48 89 c1             	mov    %rax,%rcx
   140002fd3:	e8 f8 f4 ff ff       	call   1400024d0 <cpu_set_flags>
   140002fd8:	90                   	nop
   140002fd9:	48 83 c4 30          	add    $0x30,%rsp
   140002fdd:	5d                   	pop    %rbp
   140002fde:	c3                   	ret

0000000140002fdf <proc_cp>:
   140002fdf:	55                   	push   %rbp
   140002fe0:	48 89 e5             	mov    %rsp,%rbp
   140002fe3:	48 83 ec 40          	sub    $0x40,%rsp
   140002fe7:	48 89 4d 10          	mov    %rcx,0x10(%rbp)
   140002feb:	48 8b 45 10          	mov    0x10(%rbp),%rax
   140002fef:	0f b6 00             	movzbl (%rax),%eax
   140002ff2:	0f b6 d0             	movzbl %al,%edx
   140002ff5:	48 8b 45 10          	mov    0x10(%rbp),%rax
   140002ff9:	0f b7 40 0c          	movzwl 0xc(%rax),%eax
   140002ffd:	0f b7 c0             	movzwl %ax,%eax
   140003000:	29 c2                	sub    %eax,%edx
   140003002:	89 55 fc             	mov    %edx,-0x4(%rbp)
   140003005:	8b 45 fc             	mov    -0x4(%rbp),%eax
   140003008:	c1 e8 1f             	shr    $0x1f,%eax
   14000300b:	0f b6 c8             	movzbl %al,%ecx
   14000300e:	48 8b 45 10          	mov    0x10(%rbp),%rax
   140003012:	0f b6 00             	movzbl (%rax),%eax
   140003015:	0f b6 c0             	movzbl %al,%eax
   140003018:	83 e0 0f             	and    $0xf,%eax
   14000301b:	89 c2                	mov    %eax,%edx
   14000301d:	48 8b 45 10          	mov    0x10(%rbp),%rax
   140003021:	0f b7 40 0c          	movzwl 0xc(%rax),%eax
   140003025:	0f b7 c0             	movzwl %ax,%eax
   140003028:	83 e0 0f             	and    $0xf,%eax
   14000302b:	29 c2                	sub    %eax,%edx
   14000302d:	89 d0                	mov    %edx,%eax
   14000302f:	c1 e8 1f             	shr    $0x1f,%eax
   140003032:	44 0f b6 c0          	movzbl %al,%r8d
   140003036:	83 7d fc 00          	cmpl   $0x0,-0x4(%rbp)
   14000303a:	0f 94 c0             	sete   %al
   14000303d:	0f b6 d0             	movzbl %al,%edx
   140003040:	48 8b 45 10          	mov    0x10(%rbp),%rax
   140003044:	89 4c 24 20          	mov    %ecx,0x20(%rsp)
   140003048:	45 89 c1             	mov    %r8d,%r9d
   14000304b:	41 b8 01 00 00 00    	mov    $0x1,%r8d
   140003051:	48 89 c1             	mov    %rax,%rcx
   140003054:	e8 77 f4 ff ff       	call   1400024d0 <cpu_set_flags>
   140003059:	90                   	nop
   14000305a:	48 83 c4 40          	add    $0x40,%rsp
   14000305e:	5d                   	pop    %rbp
   14000305f:	c3                   	ret

0000000140003060 <proc_di>:
   140003060:	55                   	push   %rbp
   140003061:	48 89 e5             	mov    %rsp,%rbp
   140003064:	48 89 4d 10          	mov    %rcx,0x10(%rbp)
   140003068:	48 8b 45 10          	mov    0x10(%rbp),%rax
   14000306c:	c6 40 22 00          	movb   $0x0,0x22(%rax)
   140003070:	90                   	nop
   140003071:	5d                   	pop    %rbp
   140003072:	c3                   	ret

0000000140003073 <proc_ei>:
   140003073:	55                   	push   %rbp
   140003074:	48 89 e5             	mov    %rsp,%rbp
   140003077:	48 89 4d 10          	mov    %rcx,0x10(%rbp)
   14000307b:	48 8b 45 10          	mov    0x10(%rbp),%rax
   14000307f:	c6 40 23 01          	movb   $0x1,0x23(%rax)
   140003083:	90                   	nop
   140003084:	5d                   	pop    %rbp
   140003085:	c3                   	ret

0000000140003086 <is_16_bit>:
   140003086:	55                   	push   %rbp
   140003087:	48 89 e5             	mov    %rsp,%rbp
   14000308a:	89 4d 10             	mov    %ecx,0x10(%rbp)
   14000308d:	83 7d 10 08          	cmpl   $0x8,0x10(%rbp)
   140003091:	0f 97 c0             	seta   %al
   140003094:	5d                   	pop    %rbp
   140003095:	c3                   	ret

0000000140003096 <proc_ld>:
   140003096:	55                   	push   %rbp
   140003097:	48 89 e5             	mov    %rsp,%rbp
   14000309a:	48 83 ec 40          	sub    $0x40,%rsp
   14000309e:	48 89 4d 10          	mov    %rcx,0x10(%rbp)
   1400030a2:	48 8b 45 10          	mov    0x10(%rbp),%rax
   1400030a6:	0f b6 40 10          	movzbl 0x10(%rax),%eax
   1400030aa:	84 c0                	test   %al,%al
   1400030ac:	74 6b                	je     140003119 <proc_ld+0x83>
   1400030ae:	48 8b 45 10          	mov    0x10(%rbp),%rax
   1400030b2:	48 8b 40 18          	mov    0x18(%rax),%rax
   1400030b6:	8b 40 0c             	mov    0xc(%rax),%eax
   1400030b9:	89 c1                	mov    %eax,%ecx
   1400030bb:	e8 c6 ff ff ff       	call   140003086 <is_16_bit>
   1400030c0:	84 c0                	test   %al,%al
   1400030c2:	74 29                	je     1400030ed <proc_ld+0x57>
   1400030c4:	b9 01 00 00 00       	mov    $0x1,%ecx
   1400030c9:	e8 2b e5 ff ff       	call   1400015f9 <emu_cycles>
   1400030ce:	48 8b 45 10          	mov    0x10(%rbp),%rax
   1400030d2:	0f b7 40 0c          	movzwl 0xc(%rax),%eax
   1400030d6:	0f b7 d0             	movzwl %ax,%edx
   1400030d9:	48 8b 45 10          	mov    0x10(%rbp),%rax
   1400030dd:	0f b7 40 0e          	movzwl 0xe(%rax),%eax
   1400030e1:	0f b7 c0             	movzwl %ax,%eax
   1400030e4:	89 c1                	mov    %eax,%ecx
   1400030e6:	e8 2c 19 00 00       	call   140004a17 <bus_write16>
   1400030eb:	eb 1d                	jmp    14000310a <proc_ld+0x74>
   1400030ed:	48 8b 45 10          	mov    0x10(%rbp),%rax
   1400030f1:	0f b7 40 0c          	movzwl 0xc(%rax),%eax
   1400030f5:	0f b6 d0             	movzbl %al,%edx
   1400030f8:	48 8b 45 10          	mov    0x10(%rbp),%rax
   1400030fc:	0f b7 40 0e          	movzwl 0xe(%rax),%eax
   140003100:	0f b7 c0             	movzwl %ax,%eax
   140003103:	89 c1                	mov    %eax,%ecx
   140003105:	e8 c1 17 00 00       	call   1400048cb <bus_write>
   14000310a:	b9 01 00 00 00       	mov    $0x1,%ecx
   14000310f:	e8 e5 e4 ff ff       	call   1400015f9 <emu_cycles>
   140003114:	e9 fb 00 00 00       	jmp    140003214 <proc_ld+0x17e>
   140003119:	48 8b 45 10          	mov    0x10(%rbp),%rax
   14000311d:	48 8b 40 18          	mov    0x18(%rax),%rax
   140003121:	8b 40 04             	mov    0x4(%rax),%eax
   140003124:	83 f8 0d             	cmp    $0xd,%eax
   140003127:	0f 85 c9 00 00 00    	jne    1400031f6 <proc_ld+0x160>
   14000312d:	48 8b 45 10          	mov    0x10(%rbp),%rax
   140003131:	48 8b 40 18          	mov    0x18(%rax),%rax
   140003135:	8b 40 0c             	mov    0xc(%rax),%eax
   140003138:	89 c1                	mov    %eax,%ecx
   14000313a:	e8 d0 0c 00 00       	call   140003e0f <cpu_read_reg>
   14000313f:	0f b7 c0             	movzwl %ax,%eax
   140003142:	83 e0 0f             	and    $0xf,%eax
   140003145:	89 c2                	mov    %eax,%edx
   140003147:	48 8b 45 10          	mov    0x10(%rbp),%rax
   14000314b:	0f b7 40 0c          	movzwl 0xc(%rax),%eax
   14000314f:	0f b7 c0             	movzwl %ax,%eax
   140003152:	83 e0 0f             	and    $0xf,%eax
   140003155:	01 d0                	add    %edx,%eax
   140003157:	83 f8 0f             	cmp    $0xf,%eax
   14000315a:	0f 9f c0             	setg   %al
   14000315d:	88 45 ff             	mov    %al,-0x1(%rbp)
   140003160:	48 8b 45 10          	mov    0x10(%rbp),%rax
   140003164:	48 8b 40 18          	mov    0x18(%rax),%rax
   140003168:	8b 40 0c             	mov    0xc(%rax),%eax
   14000316b:	89 c1                	mov    %eax,%ecx
   14000316d:	e8 9d 0c 00 00       	call   140003e0f <cpu_read_reg>
   140003172:	0f b7 c0             	movzwl %ax,%eax
   140003175:	0f b6 d0             	movzbl %al,%edx
   140003178:	48 8b 45 10          	mov    0x10(%rbp),%rax
   14000317c:	0f b7 40 0c          	movzwl 0xc(%rax),%eax
   140003180:	0f b7 c0             	movzwl %ax,%eax
   140003183:	0f b6 c0             	movzbl %al,%eax
   140003186:	01 d0                	add    %edx,%eax
   140003188:	3d ff 00 00 00       	cmp    $0xff,%eax
   14000318d:	0f 9f c0             	setg   %al
   140003190:	88 45 fe             	mov    %al,-0x2(%rbp)
   140003193:	0f b6 45 fe          	movzbl -0x2(%rbp),%eax
   140003197:	0f be d0             	movsbl %al,%edx
   14000319a:	0f b6 45 ff          	movzbl -0x1(%rbp),%eax
   14000319e:	0f be c8             	movsbl %al,%ecx
   1400031a1:	48 8b 45 10          	mov    0x10(%rbp),%rax
   1400031a5:	89 54 24 20          	mov    %edx,0x20(%rsp)
   1400031a9:	41 89 c9             	mov    %ecx,%r9d
   1400031ac:	41 b8 00 00 00 00    	mov    $0x0,%r8d
   1400031b2:	ba 00 00 00 00       	mov    $0x0,%edx
   1400031b7:	48 89 c1             	mov    %rax,%rcx
   1400031ba:	e8 11 f3 ff ff       	call   1400024d0 <cpu_set_flags>
   1400031bf:	48 8b 45 10          	mov    0x10(%rbp),%rax
   1400031c3:	48 8b 40 18          	mov    0x18(%rax),%rax
   1400031c7:	8b 40 0c             	mov    0xc(%rax),%eax
   1400031ca:	89 c1                	mov    %eax,%ecx
   1400031cc:	e8 3e 0c 00 00       	call   140003e0f <cpu_read_reg>
   1400031d1:	89 c2                	mov    %eax,%edx
   1400031d3:	48 8b 45 10          	mov    0x10(%rbp),%rax
   1400031d7:	0f b7 40 0c          	movzwl 0xc(%rax),%eax
   1400031db:	66 98                	cbtw
   1400031dd:	01 d0                	add    %edx,%eax
   1400031df:	0f b7 d0             	movzwl %ax,%edx
   1400031e2:	48 8b 45 10          	mov    0x10(%rbp),%rax
   1400031e6:	48 8b 40 18          	mov    0x18(%rax),%rax
   1400031ea:	8b 40 08             	mov    0x8(%rax),%eax
   1400031ed:	89 c1                	mov    %eax,%ecx
   1400031ef:	e8 73 0d 00 00       	call   140003f67 <cpu_set_reg>
   1400031f4:	eb 1e                	jmp    140003214 <proc_ld+0x17e>
   1400031f6:	48 8b 45 10          	mov    0x10(%rbp),%rax
   1400031fa:	0f b7 40 0c          	movzwl 0xc(%rax),%eax
   1400031fe:	0f b7 d0             	movzwl %ax,%edx
   140003201:	48 8b 45 10          	mov    0x10(%rbp),%rax
   140003205:	48 8b 40 18          	mov    0x18(%rax),%rax
   140003209:	8b 40 08             	mov    0x8(%rax),%eax
   14000320c:	89 c1                	mov    %eax,%ecx
   14000320e:	e8 54 0d 00 00       	call   140003f67 <cpu_set_reg>
   140003213:	90                   	nop
   140003214:	48 83 c4 40          	add    $0x40,%rsp
   140003218:	5d                   	pop    %rbp
   140003219:	c3                   	ret

000000014000321a <proc_ldh>:
   14000321a:	55                   	push   %rbp
   14000321b:	48 89 e5             	mov    %rsp,%rbp
   14000321e:	48 83 ec 20          	sub    $0x20,%rsp
   140003222:	48 89 4d 10          	mov    %rcx,0x10(%rbp)
   140003226:	48 8b 45 10          	mov    0x10(%rbp),%rax
   14000322a:	48 8b 40 18          	mov    0x18(%rax),%rax
   14000322e:	8b 40 08             	mov    0x8(%rax),%eax
   140003231:	83 f8 01             	cmp    $0x1,%eax
   140003234:	75 2d                	jne    140003263 <proc_ldh+0x49>
   140003236:	48 8b 45 10          	mov    0x10(%rbp),%rax
   14000323a:	0f b7 40 0c          	movzwl 0xc(%rax),%eax
   14000323e:	66 0d 00 ff          	or     $0xff00,%ax
   140003242:	0f b7 c0             	movzwl %ax,%eax
   140003245:	89 c1                	mov    %eax,%ecx
   140003247:	e8 54 15 00 00       	call   1400047a0 <bus_read>
   14000324c:	0f b6 d0             	movzbl %al,%edx
   14000324f:	48 8b 45 10          	mov    0x10(%rbp),%rax
   140003253:	48 8b 40 18          	mov    0x18(%rax),%rax
   140003257:	8b 40 08             	mov    0x8(%rax),%eax
   14000325a:	89 c1                	mov    %eax,%ecx
   14000325c:	e8 06 0d 00 00       	call   140003f67 <cpu_set_reg>
   140003261:	eb 1c                	jmp    14000327f <proc_ldh+0x65>
   140003263:	48 8b 45 10          	mov    0x10(%rbp),%rax
   140003267:	0f b6 00             	movzbl (%rax),%eax
   14000326a:	0f b6 d0             	movzbl %al,%edx
   14000326d:	48 8b 45 10          	mov    0x10(%rbp),%rax
   140003271:	0f b7 40 0e          	movzwl 0xe(%rax),%eax
   140003275:	0f b7 c0             	movzwl %ax,%eax
   140003278:	89 c1                	mov    %eax,%ecx
   14000327a:	e8 4c 16 00 00       	call   1400048cb <bus_write>
   14000327f:	b9 01 00 00 00       	mov    $0x1,%ecx
   140003284:	e8 70 e3 ff ff       	call   1400015f9 <emu_cycles>
   140003289:	90                   	nop
   14000328a:	48 83 c4 20          	add    $0x20,%rsp
   14000328e:	5d                   	pop    %rbp
   14000328f:	c3                   	ret

0000000140003290 <check_cond>:
   140003290:	55                   	push   %rbp
   140003291:	48 89 e5             	mov    %rsp,%rbp
   140003294:	48 83 ec 10          	sub    $0x10,%rsp
   140003298:	48 89 4d 10          	mov    %rcx,0x10(%rbp)
   14000329c:	48 8b 45 10          	mov    0x10(%rbp),%rax
   1400032a0:	0f b6 40 01          	movzbl 0x1(%rax),%eax
   1400032a4:	c0 f8 07             	sar    $0x7,%al
   1400032a7:	83 e0 01             	and    $0x1,%eax
   1400032aa:	88 45 ff             	mov    %al,-0x1(%rbp)
   1400032ad:	48 8b 45 10          	mov    0x10(%rbp),%rax
   1400032b1:	0f b6 40 01          	movzbl 0x1(%rax),%eax
   1400032b5:	0f b6 c0             	movzbl %al,%eax
   1400032b8:	c1 f8 04             	sar    $0x4,%eax
   1400032bb:	88 45 fe             	mov    %al,-0x2(%rbp)
   1400032be:	80 65 fe 01          	andb   $0x1,-0x2(%rbp)
   1400032c2:	48 8b 45 10          	mov    0x10(%rbp),%rax
   1400032c6:	48 8b 40 18          	mov    0x18(%rax),%rax
   1400032ca:	8b 40 10             	mov    0x10(%rax),%eax
   1400032cd:	83 f8 04             	cmp    $0x4,%eax
   1400032d0:	77 5d                	ja     14000332f <check_cond+0x9f>
   1400032d2:	89 c0                	mov    %eax,%eax
   1400032d4:	48 8d 14 85 00 00 00 	lea    0x0(,%rax,4),%rdx
   1400032db:	00 
   1400032dc:	48 8d 05 0d 64 00 00 	lea    0x640d(%rip),%rax        # 1400096f0 <.rdata+0x70>
   1400032e3:	8b 04 02             	mov    (%rdx,%rax,1),%eax
   1400032e6:	48 98                	cltq
   1400032e8:	48 8d 15 01 64 00 00 	lea    0x6401(%rip),%rdx        # 1400096f0 <.rdata+0x70>
   1400032ef:	48 01 d0             	add    %rdx,%rax
   1400032f2:	ff e0                	jmp    *%rax
   1400032f4:	b8 01 00 00 00       	mov    $0x1,%eax
   1400032f9:	eb 39                	jmp    140003334 <check_cond+0xa4>
   1400032fb:	0f b6 45 fe          	movzbl -0x2(%rbp),%eax
   1400032ff:	eb 33                	jmp    140003334 <check_cond+0xa4>
   140003301:	0f b6 45 fe          	movzbl -0x2(%rbp),%eax
   140003305:	85 c0                	test   %eax,%eax
   140003307:	0f 95 c0             	setne  %al
   14000330a:	83 f0 01             	xor    $0x1,%eax
   14000330d:	0f b6 c0             	movzbl %al,%eax
   140003310:	83 e0 01             	and    $0x1,%eax
   140003313:	eb 1f                	jmp    140003334 <check_cond+0xa4>
   140003315:	0f b6 45 ff          	movzbl -0x1(%rbp),%eax
   140003319:	eb 19                	jmp    140003334 <check_cond+0xa4>
   14000331b:	0f b6 45 ff          	movzbl -0x1(%rbp),%eax
   14000331f:	85 c0                	test   %eax,%eax
   140003321:	0f 95 c0             	setne  %al
   140003324:	83 f0 01             	xor    $0x1,%eax
   140003327:	0f b6 c0             	movzbl %al,%eax
   14000332a:	83 e0 01             	and    $0x1,%eax
   14000332d:	eb 05                	jmp    140003334 <check_cond+0xa4>
   14000332f:	b8 00 00 00 00       	mov    $0x0,%eax
   140003334:	48 83 c4 10          	add    $0x10,%rsp
   140003338:	5d                   	pop    %rbp
   140003339:	c3                   	ret

000000014000333a <goto_addr>:
   14000333a:	55                   	push   %rbp
   14000333b:	48 89 e5             	mov    %rsp,%rbp
   14000333e:	48 83 ec 20          	sub    $0x20,%rsp
   140003342:	48 89 4d 10          	mov    %rcx,0x10(%rbp)
   140003346:	89 d0                	mov    %edx,%eax
   140003348:	44 89 c2             	mov    %r8d,%edx
   14000334b:	66 89 45 18          	mov    %ax,0x18(%rbp)
   14000334f:	89 d0                	mov    %edx,%eax
   140003351:	88 45 20             	mov    %al,0x20(%rbp)
   140003354:	48 8b 45 10          	mov    0x10(%rbp),%rax
   140003358:	48 89 c1             	mov    %rax,%rcx
   14000335b:	e8 30 ff ff ff       	call   140003290 <check_cond>
   140003360:	84 c0                	test   %al,%al
   140003362:	74 38                	je     14000339c <goto_addr+0x62>
   140003364:	80 7d 20 00          	cmpb   $0x0,0x20(%rbp)
   140003368:	74 1c                	je     140003386 <goto_addr+0x4c>
   14000336a:	b9 02 00 00 00       	mov    $0x2,%ecx
   14000336f:	e8 85 e2 ff ff       	call   1400015f9 <emu_cycles>
   140003374:	48 8b 45 10          	mov    0x10(%rbp),%rax
   140003378:	0f b7 40 08          	movzwl 0x8(%rax),%eax
   14000337c:	0f b7 c0             	movzwl %ax,%eax
   14000337f:	89 c1                	mov    %eax,%ecx
   140003381:	e8 ab 12 00 00       	call   140004631 <stack_push16>
   140003386:	48 8b 45 10          	mov    0x10(%rbp),%rax
   14000338a:	0f b7 55 18          	movzwl 0x18(%rbp),%edx
   14000338e:	66 89 50 08          	mov    %dx,0x8(%rax)
   140003392:	b9 01 00 00 00       	mov    $0x1,%ecx
   140003397:	e8 5d e2 ff ff       	call   1400015f9 <emu_cycles>
   14000339c:	90                   	nop
   14000339d:	48 83 c4 20          	add    $0x20,%rsp
   1400033a1:	5d                   	pop    %rbp
   1400033a2:	c3                   	ret

00000001400033a3 <proc_jp>:
   1400033a3:	55                   	push   %rbp
   1400033a4:	48 89 e5             	mov    %rsp,%rbp
   1400033a7:	48 83 ec 20          	sub    $0x20,%rsp
   1400033ab:	48 89 4d 10          	mov    %rcx,0x10(%rbp)
   1400033af:	48 8b 45 10          	mov    0x10(%rbp),%rax
   1400033b3:	0f b7 40 0c          	movzwl 0xc(%rax),%eax
   1400033b7:	0f b7 d0             	movzwl %ax,%edx
   1400033ba:	48 8b 45 10          	mov    0x10(%rbp),%rax
   1400033be:	41 b8 00 00 00 00    	mov    $0x0,%r8d
   1400033c4:	48 89 c1             	mov    %rax,%rcx
   1400033c7:	e8 6e ff ff ff       	call   14000333a <goto_addr>
   1400033cc:	90                   	nop
   1400033cd:	48 83 c4 20          	add    $0x20,%rsp
   1400033d1:	5d                   	pop    %rbp
   1400033d2:	c3                   	ret

00000001400033d3 <proc_jr>:
   1400033d3:	55                   	push   %rbp
   1400033d4:	48 89 e5             	mov    %rsp,%rbp
   1400033d7:	48 83 ec 30          	sub    $0x30,%rsp
   1400033db:	48 89 4d 10          	mov    %rcx,0x10(%rbp)
   1400033df:	48 8b 45 10          	mov    0x10(%rbp),%rax
   1400033e3:	0f b7 40 0c          	movzwl 0xc(%rax),%eax
   1400033e7:	88 45 ff             	mov    %al,-0x1(%rbp)
   1400033ea:	48 8b 45 10          	mov    0x10(%rbp),%rax
   1400033ee:	0f b7 50 08          	movzwl 0x8(%rax),%edx
   1400033f2:	66 0f be 45 ff       	movsbw -0x1(%rbp),%ax
   1400033f7:	01 d0                	add    %edx,%eax
   1400033f9:	66 89 45 fc          	mov    %ax,-0x4(%rbp)
   1400033fd:	0f b7 55 fc          	movzwl -0x4(%rbp),%edx
   140003401:	48 8b 45 10          	mov    0x10(%rbp),%rax
   140003405:	41 b8 00 00 00 00    	mov    $0x0,%r8d
   14000340b:	48 89 c1             	mov    %rax,%rcx
   14000340e:	e8 27 ff ff ff       	call   14000333a <goto_addr>
   140003413:	90                   	nop
   140003414:	48 83 c4 30          	add    $0x30,%rsp
   140003418:	5d                   	pop    %rbp
   140003419:	c3                   	ret

000000014000341a <proc_call>:
   14000341a:	55                   	push   %rbp
   14000341b:	48 89 e5             	mov    %rsp,%rbp
   14000341e:	48 83 ec 20          	sub    $0x20,%rsp
   140003422:	48 89 4d 10          	mov    %rcx,0x10(%rbp)
   140003426:	48 8b 45 10          	mov    0x10(%rbp),%rax
   14000342a:	0f b7 40 0c          	movzwl 0xc(%rax),%eax
   14000342e:	0f b7 d0             	movzwl %ax,%edx
   140003431:	48 8b 45 10          	mov    0x10(%rbp),%rax
   140003435:	41 b8 01 00 00 00    	mov    $0x1,%r8d
   14000343b:	48 89 c1             	mov    %rax,%rcx
   14000343e:	e8 f7 fe ff ff       	call   14000333a <goto_addr>
   140003443:	90                   	nop
   140003444:	48 83 c4 20          	add    $0x20,%rsp
   140003448:	5d                   	pop    %rbp
   140003449:	c3                   	ret

000000014000344a <proc_rst>:
   14000344a:	55                   	push   %rbp
   14000344b:	48 89 e5             	mov    %rsp,%rbp
   14000344e:	48 83 ec 20          	sub    $0x20,%rsp
   140003452:	48 89 4d 10          	mov    %rcx,0x10(%rbp)
   140003456:	48 8b 45 10          	mov    0x10(%rbp),%rax
   14000345a:	48 8b 40 18          	mov    0x18(%rax),%rax
   14000345e:	0f b6 40 14          	movzbl 0x14(%rax),%eax
   140003462:	0f b6 d0             	movzbl %al,%edx
   140003465:	48 8b 45 10          	mov    0x10(%rbp),%rax
   140003469:	41 b8 01 00 00 00    	mov    $0x1,%r8d
   14000346f:	48 89 c1             	mov    %rax,%rcx
   140003472:	e8 c3 fe ff ff       	call   14000333a <goto_addr>
   140003477:	90                   	nop
   140003478:	48 83 c4 20          	add    $0x20,%rsp
   14000347c:	5d                   	pop    %rbp
   14000347d:	c3                   	ret

000000014000347e <proc_ret>:
   14000347e:	55                   	push   %rbp
   14000347f:	48 89 e5             	mov    %rsp,%rbp
   140003482:	48 83 ec 30          	sub    $0x30,%rsp
   140003486:	48 89 4d 10          	mov    %rcx,0x10(%rbp)
   14000348a:	48 8b 45 10          	mov    0x10(%rbp),%rax
   14000348e:	48 8b 40 18          	mov    0x18(%rax),%rax
   140003492:	8b 40 10             	mov    0x10(%rax),%eax
   140003495:	85 c0                	test   %eax,%eax
   140003497:	74 0a                	je     1400034a3 <proc_ret+0x25>
   140003499:	b9 01 00 00 00       	mov    $0x1,%ecx
   14000349e:	e8 56 e1 ff ff       	call   1400015f9 <emu_cycles>
   1400034a3:	48 8b 45 10          	mov    0x10(%rbp),%rax
   1400034a7:	48 89 c1             	mov    %rax,%rcx
   1400034aa:	e8 e1 fd ff ff       	call   140003290 <check_cond>
   1400034af:	84 c0                	test   %al,%al
   1400034b1:	74 55                	je     140003508 <proc_ret+0x8a>
   1400034b3:	e8 ae 11 00 00       	call   140004666 <stack_pop>
   1400034b8:	0f b6 c0             	movzbl %al,%eax
   1400034bb:	66 89 45 fe          	mov    %ax,-0x2(%rbp)
   1400034bf:	b9 01 00 00 00       	mov    $0x1,%ecx
   1400034c4:	e8 30 e1 ff ff       	call   1400015f9 <emu_cycles>
   1400034c9:	e8 98 11 00 00       	call   140004666 <stack_pop>
   1400034ce:	0f b6 c0             	movzbl %al,%eax
   1400034d1:	66 89 45 fc          	mov    %ax,-0x4(%rbp)
   1400034d5:	b9 01 00 00 00       	mov    $0x1,%ecx
   1400034da:	e8 1a e1 ff ff       	call   1400015f9 <emu_cycles>
   1400034df:	0f b7 45 fc          	movzwl -0x4(%rbp),%eax
   1400034e3:	c1 e0 08             	shl    $0x8,%eax
   1400034e6:	89 c2                	mov    %eax,%edx
   1400034e8:	0f b7 45 fe          	movzwl -0x2(%rbp),%eax
   1400034ec:	09 d0                	or     %edx,%eax
   1400034ee:	66 89 45 fa          	mov    %ax,-0x6(%rbp)
   1400034f2:	48 8b 45 10          	mov    0x10(%rbp),%rax
   1400034f6:	0f b7 55 fa          	movzwl -0x6(%rbp),%edx
   1400034fa:	66 89 50 08          	mov    %dx,0x8(%rax)
   1400034fe:	b9 01 00 00 00       	mov    $0x1,%ecx
   140003503:	e8 f1 e0 ff ff       	call   1400015f9 <emu_cycles>
   140003508:	90                   	nop
   140003509:	48 83 c4 30          	add    $0x30,%rsp
   14000350d:	5d                   	pop    %rbp
   14000350e:	c3                   	ret

000000014000350f <proc_reti>:
   14000350f:	55                   	push   %rbp
   140003510:	48 89 e5             	mov    %rsp,%rbp
   140003513:	48 83 ec 20          	sub    $0x20,%rsp
   140003517:	48 89 4d 10          	mov    %rcx,0x10(%rbp)
   14000351b:	48 8b 45 10          	mov    0x10(%rbp),%rax
   14000351f:	c6 40 22 01          	movb   $0x1,0x22(%rax)
   140003523:	48 8b 45 10          	mov    0x10(%rbp),%rax
   140003527:	48 89 c1             	mov    %rax,%rcx
   14000352a:	e8 4f ff ff ff       	call   14000347e <proc_ret>
   14000352f:	90                   	nop
   140003530:	48 83 c4 20          	add    $0x20,%rsp
   140003534:	5d                   	pop    %rbp
   140003535:	c3                   	ret

0000000140003536 <proc_pop>:
   140003536:	55                   	push   %rbp
   140003537:	48 89 e5             	mov    %rsp,%rbp
   14000353a:	48 83 ec 30          	sub    $0x30,%rsp
   14000353e:	48 89 4d 10          	mov    %rcx,0x10(%rbp)
   140003542:	e8 1f 11 00 00       	call   140004666 <stack_pop>
   140003547:	0f b6 c0             	movzbl %al,%eax
   14000354a:	66 89 45 fe          	mov    %ax,-0x2(%rbp)
   14000354e:	b9 01 00 00 00       	mov    $0x1,%ecx
   140003553:	e8 a1 e0 ff ff       	call   1400015f9 <emu_cycles>
   140003558:	e8 09 11 00 00       	call   140004666 <stack_pop>
   14000355d:	0f b6 c0             	movzbl %al,%eax
   140003560:	66 89 45 fc          	mov    %ax,-0x4(%rbp)
   140003564:	b9 01 00 00 00       	mov    $0x1,%ecx
   140003569:	e8 8b e0 ff ff       	call   1400015f9 <emu_cycles>
   14000356e:	0f b7 45 fc          	movzwl -0x4(%rbp),%eax
   140003572:	c1 e0 08             	shl    $0x8,%eax
   140003575:	89 c2                	mov    %eax,%edx
   140003577:	0f b7 45 fe          	movzwl -0x2(%rbp),%eax
   14000357b:	09 d0                	or     %edx,%eax
   14000357d:	66 89 45 fa          	mov    %ax,-0x6(%rbp)
   140003581:	0f b7 55 fa          	movzwl -0x6(%rbp),%edx
   140003585:	48 8b 45 10          	mov    0x10(%rbp),%rax
   140003589:	48 8b 40 18          	mov    0x18(%rax),%rax
   14000358d:	8b 40 08             	mov    0x8(%rax),%eax
   140003590:	89 c1                	mov    %eax,%ecx
   140003592:	e8 d0 09 00 00       	call   140003f67 <cpu_set_reg>
   140003597:	48 8b 45 10          	mov    0x10(%rbp),%rax
   14000359b:	48 8b 40 18          	mov    0x18(%rax),%rax
   14000359f:	8b 40 08             	mov    0x8(%rax),%eax
   1400035a2:	83 f8 09             	cmp    $0x9,%eax
   1400035a5:	75 1d                	jne    1400035c4 <proc_pop+0x8e>
   1400035a7:	0f b7 45 fa          	movzwl -0x6(%rbp),%eax
   1400035ab:	25 f0 ff 00 00       	and    $0xfff0,%eax
   1400035b0:	89 c2                	mov    %eax,%edx
   1400035b2:	48 8b 45 10          	mov    0x10(%rbp),%rax
   1400035b6:	48 8b 40 18          	mov    0x18(%rax),%rax
   1400035ba:	8b 40 08             	mov    0x8(%rax),%eax
   1400035bd:	89 c1                	mov    %eax,%ecx
   1400035bf:	e8 a3 09 00 00       	call   140003f67 <cpu_set_reg>
   1400035c4:	90                   	nop
   1400035c5:	48 83 c4 30          	add    $0x30,%rsp
   1400035c9:	5d                   	pop    %rbp
   1400035ca:	c3                   	ret

00000001400035cb <proc_push>:
   1400035cb:	55                   	push   %rbp
   1400035cc:	48 89 e5             	mov    %rsp,%rbp
   1400035cf:	48 83 ec 30          	sub    $0x30,%rsp
   1400035d3:	48 89 4d 10          	mov    %rcx,0x10(%rbp)
   1400035d7:	48 8b 45 10          	mov    0x10(%rbp),%rax
   1400035db:	48 8b 40 18          	mov    0x18(%rax),%rax
   1400035df:	8b 40 08             	mov    0x8(%rax),%eax
   1400035e2:	89 c1                	mov    %eax,%ecx
   1400035e4:	e8 26 08 00 00       	call   140003e0f <cpu_read_reg>
   1400035e9:	66 c1 e8 08          	shr    $0x8,%ax
   1400035ed:	66 25 ff 00          	and    $0xff,%ax
   1400035f1:	66 89 45 fe          	mov    %ax,-0x2(%rbp)
   1400035f5:	b9 01 00 00 00       	mov    $0x1,%ecx
   1400035fa:	e8 fa df ff ff       	call   1400015f9 <emu_cycles>
   1400035ff:	0f b7 45 fe          	movzwl -0x2(%rbp),%eax
   140003603:	0f b6 c0             	movzbl %al,%eax
   140003606:	89 c1                	mov    %eax,%ecx
   140003608:	e8 e3 0f 00 00       	call   1400045f0 <stack_push>
   14000360d:	48 8b 45 10          	mov    0x10(%rbp),%rax
   140003611:	48 8b 40 18          	mov    0x18(%rax),%rax
   140003615:	8b 40 08             	mov    0x8(%rax),%eax
   140003618:	89 c1                	mov    %eax,%ecx
   14000361a:	e8 f0 07 00 00       	call   140003e0f <cpu_read_reg>
   14000361f:	66 25 ff 00          	and    $0xff,%ax
   140003623:	66 89 45 fc          	mov    %ax,-0x4(%rbp)
   140003627:	b9 01 00 00 00       	mov    $0x1,%ecx
   14000362c:	e8 c8 df ff ff       	call   1400015f9 <emu_cycles>
   140003631:	0f b7 45 fc          	movzwl -0x4(%rbp),%eax
   140003635:	0f b6 c0             	movzbl %al,%eax
   140003638:	89 c1                	mov    %eax,%ecx
   14000363a:	e8 b1 0f 00 00       	call   1400045f0 <stack_push>
   14000363f:	b9 01 00 00 00       	mov    $0x1,%ecx
   140003644:	e8 b0 df ff ff       	call   1400015f9 <emu_cycles>
   140003649:	90                   	nop
   14000364a:	48 83 c4 30          	add    $0x30,%rsp
   14000364e:	5d                   	pop    %rbp
   14000364f:	c3                   	ret

0000000140003650 <proc_inc>:
   140003650:	55                   	push   %rbp
   140003651:	53                   	push   %rbx
   140003652:	48 83 ec 48          	sub    $0x48,%rsp
   140003656:	48 8d 6c 24 40       	lea    0x40(%rsp),%rbp
   14000365b:	48 89 4d 20          	mov    %rcx,0x20(%rbp)
   14000365f:	48 8b 45 20          	mov    0x20(%rbp),%rax
   140003663:	48 8b 40 18          	mov    0x18(%rax),%rax
   140003667:	8b 40 08             	mov    0x8(%rax),%eax
   14000366a:	89 c1                	mov    %eax,%ecx
   14000366c:	e8 9e 07 00 00       	call   140003e0f <cpu_read_reg>
   140003671:	83 c0 01             	add    $0x1,%eax
   140003674:	66 89 45 fe          	mov    %ax,-0x2(%rbp)
   140003678:	48 8b 45 20          	mov    0x20(%rbp),%rax
   14000367c:	48 8b 40 18          	mov    0x18(%rax),%rax
   140003680:	8b 40 08             	mov    0x8(%rax),%eax
   140003683:	89 c1                	mov    %eax,%ecx
   140003685:	e8 fc f9 ff ff       	call   140003086 <is_16_bit>
   14000368a:	84 c0                	test   %al,%al
   14000368c:	74 0a                	je     140003698 <proc_inc+0x48>
   14000368e:	b9 01 00 00 00       	mov    $0x1,%ecx
   140003693:	e8 61 df ff ff       	call   1400015f9 <emu_cycles>
   140003698:	48 8b 45 20          	mov    0x20(%rbp),%rax
   14000369c:	48 8b 40 18          	mov    0x18(%rax),%rax
   1400036a0:	8b 40 08             	mov    0x8(%rax),%eax
   1400036a3:	83 f8 0c             	cmp    $0xc,%eax
   1400036a6:	75 53                	jne    1400036fb <proc_inc+0xab>
   1400036a8:	48 8b 45 20          	mov    0x20(%rbp),%rax
   1400036ac:	48 8b 40 18          	mov    0x18(%rax),%rax
   1400036b0:	8b 40 04             	mov    0x4(%rax),%eax
   1400036b3:	83 f8 12             	cmp    $0x12,%eax
   1400036b6:	75 43                	jne    1400036fb <proc_inc+0xab>
   1400036b8:	b9 0c 00 00 00       	mov    $0xc,%ecx
   1400036bd:	e8 4d 07 00 00       	call   140003e0f <cpu_read_reg>
   1400036c2:	0f b7 c0             	movzwl %ax,%eax
   1400036c5:	89 c1                	mov    %eax,%ecx
   1400036c7:	e8 d4 10 00 00       	call   1400047a0 <bus_read>
   1400036cc:	0f b6 c0             	movzbl %al,%eax
   1400036cf:	83 c0 01             	add    $0x1,%eax
   1400036d2:	66 89 45 fe          	mov    %ax,-0x2(%rbp)
   1400036d6:	66 81 65 fe ff 00    	andw   $0xff,-0x2(%rbp)
   1400036dc:	0f b7 45 fe          	movzwl -0x2(%rbp),%eax
   1400036e0:	0f b6 d8             	movzbl %al,%ebx
   1400036e3:	b9 0c 00 00 00       	mov    $0xc,%ecx
   1400036e8:	e8 22 07 00 00       	call   140003e0f <cpu_read_reg>
   1400036ed:	0f b7 c0             	movzwl %ax,%eax
   1400036f0:	89 da                	mov    %ebx,%edx
   1400036f2:	89 c1                	mov    %eax,%ecx
   1400036f4:	e8 d2 11 00 00       	call   1400048cb <bus_write>
   1400036f9:	eb 2c                	jmp    140003727 <proc_inc+0xd7>
   1400036fb:	0f b7 55 fe          	movzwl -0x2(%rbp),%edx
   1400036ff:	48 8b 45 20          	mov    0x20(%rbp),%rax
   140003703:	48 8b 40 18          	mov    0x18(%rax),%rax
   140003707:	8b 40 08             	mov    0x8(%rax),%eax
   14000370a:	89 c1                	mov    %eax,%ecx
   14000370c:	e8 56 08 00 00       	call   140003f67 <cpu_set_reg>
   140003711:	48 8b 45 20          	mov    0x20(%rbp),%rax
   140003715:	48 8b 40 18          	mov    0x18(%rax),%rax
   140003719:	8b 40 08             	mov    0x8(%rax),%eax
   14000371c:	89 c1                	mov    %eax,%ecx
   14000371e:	e8 ec 06 00 00       	call   140003e0f <cpu_read_reg>
   140003723:	66 89 45 fe          	mov    %ax,-0x2(%rbp)
   140003727:	48 8b 45 20          	mov    0x20(%rbp),%rax
   14000372b:	0f b6 40 11          	movzbl 0x11(%rax),%eax
   14000372f:	0f b6 c0             	movzbl %al,%eax
   140003732:	83 e0 03             	and    $0x3,%eax
   140003735:	83 f8 03             	cmp    $0x3,%eax
   140003738:	74 39                	je     140003773 <proc_inc+0x123>
   14000373a:	0f b7 45 fe          	movzwl -0x2(%rbp),%eax
   14000373e:	83 e0 0f             	and    $0xf,%eax
   140003741:	85 c0                	test   %eax,%eax
   140003743:	0f 94 c0             	sete   %al
   140003746:	0f b6 c8             	movzbl %al,%ecx
   140003749:	66 83 7d fe 00       	cmpw   $0x0,-0x2(%rbp)
   14000374e:	0f 94 c0             	sete   %al
   140003751:	0f b6 d0             	movzbl %al,%edx
   140003754:	48 8b 45 20          	mov    0x20(%rbp),%rax
   140003758:	c7 44 24 20 ff ff ff 	movl   $0xffffffff,0x20(%rsp)
   14000375f:	ff 
   140003760:	41 89 c9             	mov    %ecx,%r9d
   140003763:	41 b8 00 00 00 00    	mov    $0x0,%r8d
   140003769:	48 89 c1             	mov    %rax,%rcx
   14000376c:	e8 5f ed ff ff       	call   1400024d0 <cpu_set_flags>
   140003771:	eb 01                	jmp    140003774 <proc_inc+0x124>
   140003773:	90                   	nop
   140003774:	48 83 c4 48          	add    $0x48,%rsp
   140003778:	5b                   	pop    %rbx
   140003779:	5d                   	pop    %rbp
   14000377a:	c3                   	ret

000000014000377b <proc_dec>:
   14000377b:	55                   	push   %rbp
   14000377c:	53                   	push   %rbx
   14000377d:	48 83 ec 48          	sub    $0x48,%rsp
   140003781:	48 8d 6c 24 40       	lea    0x40(%rsp),%rbp
   140003786:	48 89 4d 20          	mov    %rcx,0x20(%rbp)
   14000378a:	48 8b 45 20          	mov    0x20(%rbp),%rax
   14000378e:	48 8b 40 18          	mov    0x18(%rax),%rax
   140003792:	8b 40 08             	mov    0x8(%rax),%eax
   140003795:	89 c1                	mov    %eax,%ecx
   140003797:	e8 73 06 00 00       	call   140003e0f <cpu_read_reg>
   14000379c:	83 e8 01             	sub    $0x1,%eax
   14000379f:	66 89 45 fe          	mov    %ax,-0x2(%rbp)
   1400037a3:	48 8b 45 20          	mov    0x20(%rbp),%rax
   1400037a7:	48 8b 40 18          	mov    0x18(%rax),%rax
   1400037ab:	8b 40 08             	mov    0x8(%rax),%eax
   1400037ae:	89 c1                	mov    %eax,%ecx
   1400037b0:	e8 d1 f8 ff ff       	call   140003086 <is_16_bit>
   1400037b5:	84 c0                	test   %al,%al
   1400037b7:	74 0a                	je     1400037c3 <proc_dec+0x48>
   1400037b9:	b9 01 00 00 00       	mov    $0x1,%ecx
   1400037be:	e8 36 de ff ff       	call   1400015f9 <emu_cycles>
   1400037c3:	48 8b 45 20          	mov    0x20(%rbp),%rax
   1400037c7:	48 8b 40 18          	mov    0x18(%rax),%rax
   1400037cb:	8b 40 08             	mov    0x8(%rax),%eax
   1400037ce:	83 f8 0c             	cmp    $0xc,%eax
   1400037d1:	75 4d                	jne    140003820 <proc_dec+0xa5>
   1400037d3:	48 8b 45 20          	mov    0x20(%rbp),%rax
   1400037d7:	48 8b 40 18          	mov    0x18(%rax),%rax
   1400037db:	8b 40 04             	mov    0x4(%rax),%eax
   1400037de:	83 f8 12             	cmp    $0x12,%eax
   1400037e1:	75 3d                	jne    140003820 <proc_dec+0xa5>
   1400037e3:	b9 0c 00 00 00       	mov    $0xc,%ecx
   1400037e8:	e8 22 06 00 00       	call   140003e0f <cpu_read_reg>
   1400037ed:	0f b7 c0             	movzwl %ax,%eax
   1400037f0:	89 c1                	mov    %eax,%ecx
   1400037f2:	e8 a9 0f 00 00       	call   1400047a0 <bus_read>
   1400037f7:	0f b6 c0             	movzbl %al,%eax
   1400037fa:	83 e8 01             	sub    $0x1,%eax
   1400037fd:	66 89 45 fe          	mov    %ax,-0x2(%rbp)
   140003801:	0f b7 45 fe          	movzwl -0x2(%rbp),%eax
   140003805:	0f b6 d8             	movzbl %al,%ebx
   140003808:	b9 0c 00 00 00       	mov    $0xc,%ecx
   14000380d:	e8 fd 05 00 00       	call   140003e0f <cpu_read_reg>
   140003812:	0f b7 c0             	movzwl %ax,%eax
   140003815:	89 da                	mov    %ebx,%edx
   140003817:	89 c1                	mov    %eax,%ecx
   140003819:	e8 ad 10 00 00       	call   1400048cb <bus_write>
   14000381e:	eb 2c                	jmp    14000384c <proc_dec+0xd1>
   140003820:	0f b7 55 fe          	movzwl -0x2(%rbp),%edx
   140003824:	48 8b 45 20          	mov    0x20(%rbp),%rax
   140003828:	48 8b 40 18          	mov    0x18(%rax),%rax
   14000382c:	8b 40 08             	mov    0x8(%rax),%eax
   14000382f:	89 c1                	mov    %eax,%ecx
   140003831:	e8 31 07 00 00       	call   140003f67 <cpu_set_reg>
   140003836:	48 8b 45 20          	mov    0x20(%rbp),%rax
   14000383a:	48 8b 40 18          	mov    0x18(%rax),%rax
   14000383e:	8b 40 08             	mov    0x8(%rax),%eax
   140003841:	89 c1                	mov    %eax,%ecx
   140003843:	e8 c7 05 00 00       	call   140003e0f <cpu_read_reg>
   140003848:	66 89 45 fe          	mov    %ax,-0x2(%rbp)
   14000384c:	48 8b 45 20          	mov    0x20(%rbp),%rax
   140003850:	0f b6 40 11          	movzbl 0x11(%rax),%eax
   140003854:	0f b6 c0             	movzbl %al,%eax
   140003857:	83 e0 0b             	and    $0xb,%eax
   14000385a:	83 f8 0b             	cmp    $0xb,%eax
   14000385d:	74 3a                	je     140003899 <proc_dec+0x11e>
   14000385f:	0f b7 45 fe          	movzwl -0x2(%rbp),%eax
   140003863:	83 e0 0f             	and    $0xf,%eax
   140003866:	83 f8 0f             	cmp    $0xf,%eax
   140003869:	0f 94 c0             	sete   %al
   14000386c:	0f b6 c8             	movzbl %al,%ecx
   14000386f:	66 83 7d fe 00       	cmpw   $0x0,-0x2(%rbp)
   140003874:	0f 94 c0             	sete   %al
   140003877:	0f b6 d0             	movzbl %al,%edx
   14000387a:	48 8b 45 20          	mov    0x20(%rbp),%rax
   14000387e:	c7 44 24 20 ff ff ff 	movl   $0xffffffff,0x20(%rsp)
   140003885:	ff 
   140003886:	41 89 c9             	mov    %ecx,%r9d
   140003889:	41 b8 01 00 00 00    	mov    $0x1,%r8d
   14000388f:	48 89 c1             	mov    %rax,%rcx
   140003892:	e8 39 ec ff ff       	call   1400024d0 <cpu_set_flags>
   140003897:	eb 01                	jmp    14000389a <proc_dec+0x11f>
   140003899:	90                   	nop
   14000389a:	48 83 c4 48          	add    $0x48,%rsp
   14000389e:	5b                   	pop    %rbx
   14000389f:	5d                   	pop    %rbp
   1400038a0:	c3                   	ret

00000001400038a1 <proc_sub>:
   1400038a1:	55                   	push   %rbp
   1400038a2:	48 89 e5             	mov    %rsp,%rbp
   1400038a5:	48 83 ec 40          	sub    $0x40,%rsp
   1400038a9:	48 89 4d 10          	mov    %rcx,0x10(%rbp)
   1400038ad:	48 8b 45 10          	mov    0x10(%rbp),%rax
   1400038b1:	48 8b 40 18          	mov    0x18(%rax),%rax
   1400038b5:	8b 40 08             	mov    0x8(%rax),%eax
   1400038b8:	89 c1                	mov    %eax,%ecx
   1400038ba:	e8 50 05 00 00       	call   140003e0f <cpu_read_reg>
   1400038bf:	48 8b 55 10          	mov    0x10(%rbp),%rdx
   1400038c3:	0f b7 52 0c          	movzwl 0xc(%rdx),%edx
   1400038c7:	29 d0                	sub    %edx,%eax
   1400038c9:	66 89 45 fe          	mov    %ax,-0x2(%rbp)
   1400038cd:	66 83 7d fe 00       	cmpw   $0x0,-0x2(%rbp)
   1400038d2:	0f 94 c0             	sete   %al
   1400038d5:	0f b6 c0             	movzbl %al,%eax
   1400038d8:	89 45 f8             	mov    %eax,-0x8(%rbp)
   1400038db:	48 8b 45 10          	mov    0x10(%rbp),%rax
   1400038df:	48 8b 40 18          	mov    0x18(%rax),%rax
   1400038e3:	8b 40 08             	mov    0x8(%rax),%eax
   1400038e6:	89 c1                	mov    %eax,%ecx
   1400038e8:	e8 22 05 00 00       	call   140003e0f <cpu_read_reg>
   1400038ed:	0f b7 c0             	movzwl %ax,%eax
   1400038f0:	83 e0 0f             	and    $0xf,%eax
   1400038f3:	89 c2                	mov    %eax,%edx
   1400038f5:	48 8b 45 10          	mov    0x10(%rbp),%rax
   1400038f9:	0f b7 40 0c          	movzwl 0xc(%rax),%eax
   1400038fd:	0f b7 c0             	movzwl %ax,%eax
   140003900:	83 e0 0f             	and    $0xf,%eax
   140003903:	29 c2                	sub    %eax,%edx
   140003905:	89 d0                	mov    %edx,%eax
   140003907:	c1 e8 1f             	shr    $0x1f,%eax
   14000390a:	0f b6 c0             	movzbl %al,%eax
   14000390d:	89 45 f4             	mov    %eax,-0xc(%rbp)
   140003910:	48 8b 45 10          	mov    0x10(%rbp),%rax
   140003914:	48 8b 40 18          	mov    0x18(%rax),%rax
   140003918:	8b 40 08             	mov    0x8(%rax),%eax
   14000391b:	89 c1                	mov    %eax,%ecx
   14000391d:	e8 ed 04 00 00       	call   140003e0f <cpu_read_reg>
   140003922:	0f b7 d0             	movzwl %ax,%edx
   140003925:	48 8b 45 10          	mov    0x10(%rbp),%rax
   140003929:	0f b7 40 0c          	movzwl 0xc(%rax),%eax
   14000392d:	0f b7 c0             	movzwl %ax,%eax
   140003930:	29 c2                	sub    %eax,%edx
   140003932:	89 d0                	mov    %edx,%eax
   140003934:	c1 e8 1f             	shr    $0x1f,%eax
   140003937:	0f b6 c0             	movzbl %al,%eax
   14000393a:	89 45 f0             	mov    %eax,-0x10(%rbp)
   14000393d:	0f b7 55 fe          	movzwl -0x2(%rbp),%edx
   140003941:	48 8b 45 10          	mov    0x10(%rbp),%rax
   140003945:	48 8b 40 18          	mov    0x18(%rax),%rax
   140003949:	8b 40 08             	mov    0x8(%rax),%eax
   14000394c:	89 c1                	mov    %eax,%ecx
   14000394e:	e8 14 06 00 00       	call   140003f67 <cpu_set_reg>
   140003953:	8b 45 f0             	mov    -0x10(%rbp),%eax
   140003956:	0f be c8             	movsbl %al,%ecx
   140003959:	8b 45 f4             	mov    -0xc(%rbp),%eax
   14000395c:	44 0f be c0          	movsbl %al,%r8d
   140003960:	8b 45 f8             	mov    -0x8(%rbp),%eax
   140003963:	0f be d0             	movsbl %al,%edx
   140003966:	48 8b 45 10          	mov    0x10(%rbp),%rax
   14000396a:	89 4c 24 20          	mov    %ecx,0x20(%rsp)
   14000396e:	45 89 c1             	mov    %r8d,%r9d
   140003971:	41 b8 01 00 00 00    	mov    $0x1,%r8d
   140003977:	48 89 c1             	mov    %rax,%rcx
   14000397a:	e8 51 eb ff ff       	call   1400024d0 <cpu_set_flags>
   14000397f:	90                   	nop
   140003980:	48 83 c4 40          	add    $0x40,%rsp
   140003984:	5d                   	pop    %rbp
   140003985:	c3                   	ret

0000000140003986 <proc_sbc>:
   140003986:	55                   	push   %rbp
   140003987:	48 89 e5             	mov    %rsp,%rbp
   14000398a:	48 83 ec 40          	sub    $0x40,%rsp
   14000398e:	48 89 4d 10          	mov    %rcx,0x10(%rbp)
   140003992:	48 8b 45 10          	mov    0x10(%rbp),%rax
   140003996:	0f b7 40 0c          	movzwl 0xc(%rax),%eax
   14000399a:	89 c2                	mov    %eax,%edx
   14000399c:	48 8b 45 10          	mov    0x10(%rbp),%rax
   1400039a0:	0f b6 40 01          	movzbl 0x1(%rax),%eax
   1400039a4:	0f b6 c0             	movzbl %al,%eax
   1400039a7:	c1 f8 04             	sar    $0x4,%eax
   1400039aa:	83 e0 01             	and    $0x1,%eax
   1400039ad:	01 d0                	add    %edx,%eax
   1400039af:	88 45 ff             	mov    %al,-0x1(%rbp)
   1400039b2:	48 8b 45 10          	mov    0x10(%rbp),%rax
   1400039b6:	48 8b 40 18          	mov    0x18(%rax),%rax
   1400039ba:	8b 40 08             	mov    0x8(%rax),%eax
   1400039bd:	89 c1                	mov    %eax,%ecx
   1400039bf:	e8 4b 04 00 00       	call   140003e0f <cpu_read_reg>
   1400039c4:	0f b6 55 ff          	movzbl -0x1(%rbp),%edx
   1400039c8:	66 39 d0             	cmp    %dx,%ax
   1400039cb:	0f 94 c0             	sete   %al
   1400039ce:	0f b6 c0             	movzbl %al,%eax
   1400039d1:	89 45 f8             	mov    %eax,-0x8(%rbp)
   1400039d4:	48 8b 45 10          	mov    0x10(%rbp),%rax
   1400039d8:	48 8b 40 18          	mov    0x18(%rax),%rax
   1400039dc:	8b 40 08             	mov    0x8(%rax),%eax
   1400039df:	89 c1                	mov    %eax,%ecx
   1400039e1:	e8 29 04 00 00       	call   140003e0f <cpu_read_reg>
   1400039e6:	0f b7 c0             	movzwl %ax,%eax
   1400039e9:	83 e0 0f             	and    $0xf,%eax
   1400039ec:	89 c2                	mov    %eax,%edx
   1400039ee:	48 8b 45 10          	mov    0x10(%rbp),%rax
   1400039f2:	0f b7 40 0c          	movzwl 0xc(%rax),%eax
   1400039f6:	0f b7 c0             	movzwl %ax,%eax
   1400039f9:	83 e0 0f             	and    $0xf,%eax
   1400039fc:	29 c2                	sub    %eax,%edx
   1400039fe:	48 8b 45 10          	mov    0x10(%rbp),%rax
   140003a02:	0f b6 40 01          	movzbl 0x1(%rax),%eax
   140003a06:	0f b6 c0             	movzbl %al,%eax
   140003a09:	c1 f8 04             	sar    $0x4,%eax
   140003a0c:	83 e0 01             	and    $0x1,%eax
   140003a0f:	29 c2                	sub    %eax,%edx
   140003a11:	89 d0                	mov    %edx,%eax
   140003a13:	c1 e8 1f             	shr    $0x1f,%eax
   140003a16:	0f b6 c0             	movzbl %al,%eax
   140003a19:	89 45 f4             	mov    %eax,-0xc(%rbp)
   140003a1c:	48 8b 45 10          	mov    0x10(%rbp),%rax
   140003a20:	48 8b 40 18          	mov    0x18(%rax),%rax
   140003a24:	8b 40 08             	mov    0x8(%rax),%eax
   140003a27:	89 c1                	mov    %eax,%ecx
   140003a29:	e8 e1 03 00 00       	call   140003e0f <cpu_read_reg>
   140003a2e:	0f b7 d0             	movzwl %ax,%edx
   140003a31:	48 8b 45 10          	mov    0x10(%rbp),%rax
   140003a35:	0f b7 40 0c          	movzwl 0xc(%rax),%eax
   140003a39:	0f b7 c0             	movzwl %ax,%eax
   140003a3c:	29 c2                	sub    %eax,%edx
   140003a3e:	48 8b 45 10          	mov    0x10(%rbp),%rax
   140003a42:	0f b6 40 01          	movzbl 0x1(%rax),%eax
   140003a46:	0f b6 c0             	movzbl %al,%eax
   140003a49:	c1 f8 04             	sar    $0x4,%eax
   140003a4c:	83 e0 01             	and    $0x1,%eax
   140003a4f:	29 c2                	sub    %eax,%edx
   140003a51:	89 d0                	mov    %edx,%eax
   140003a53:	c1 e8 1f             	shr    $0x1f,%eax
   140003a56:	0f b6 c0             	movzbl %al,%eax
   140003a59:	89 45 f0             	mov    %eax,-0x10(%rbp)
   140003a5c:	48 8b 45 10          	mov    0x10(%rbp),%rax
   140003a60:	48 8b 40 18          	mov    0x18(%rax),%rax
   140003a64:	8b 40 08             	mov    0x8(%rax),%eax
   140003a67:	89 c1                	mov    %eax,%ecx
   140003a69:	e8 a1 03 00 00       	call   140003e0f <cpu_read_reg>
   140003a6e:	0f b6 55 ff          	movzbl -0x1(%rbp),%edx
   140003a72:	29 d0                	sub    %edx,%eax
   140003a74:	0f b7 d0             	movzwl %ax,%edx
   140003a77:	48 8b 45 10          	mov    0x10(%rbp),%rax
   140003a7b:	48 8b 40 18          	mov    0x18(%rax),%rax
   140003a7f:	8b 40 08             	mov    0x8(%rax),%eax
   140003a82:	89 c1                	mov    %eax,%ecx
   140003a84:	e8 de 04 00 00       	call   140003f67 <cpu_set_reg>
   140003a89:	8b 45 f0             	mov    -0x10(%rbp),%eax
   140003a8c:	0f be c8             	movsbl %al,%ecx
   140003a8f:	8b 45 f4             	mov    -0xc(%rbp),%eax
   140003a92:	44 0f be c0          	movsbl %al,%r8d
   140003a96:	8b 45 f8             	mov    -0x8(%rbp),%eax
   140003a99:	0f be d0             	movsbl %al,%edx
   140003a9c:	48 8b 45 10          	mov    0x10(%rbp),%rax
   140003aa0:	89 4c 24 20          	mov    %ecx,0x20(%rsp)
   140003aa4:	45 89 c1             	mov    %r8d,%r9d
   140003aa7:	41 b8 01 00 00 00    	mov    $0x1,%r8d
   140003aad:	48 89 c1             	mov    %rax,%rcx
   140003ab0:	e8 1b ea ff ff       	call   1400024d0 <cpu_set_flags>
   140003ab5:	90                   	nop
   140003ab6:	48 83 c4 40          	add    $0x40,%rsp
   140003aba:	5d                   	pop    %rbp
   140003abb:	c3                   	ret

0000000140003abc <proc_adc>:
   140003abc:	55                   	push   %rbp
   140003abd:	48 89 e5             	mov    %rsp,%rbp
   140003ac0:	48 83 ec 40          	sub    $0x40,%rsp
   140003ac4:	48 89 4d 10          	mov    %rcx,0x10(%rbp)
   140003ac8:	48 8b 45 10          	mov    0x10(%rbp),%rax
   140003acc:	0f b7 40 0c          	movzwl 0xc(%rax),%eax
   140003ad0:	66 89 45 fe          	mov    %ax,-0x2(%rbp)
   140003ad4:	48 8b 45 10          	mov    0x10(%rbp),%rax
   140003ad8:	0f b6 00             	movzbl (%rax),%eax
   140003adb:	0f b6 c0             	movzbl %al,%eax
   140003ade:	66 89 45 fc          	mov    %ax,-0x4(%rbp)
   140003ae2:	48 8b 45 10          	mov    0x10(%rbp),%rax
   140003ae6:	0f b6 40 01          	movzbl 0x1(%rax),%eax
   140003aea:	0f b6 c0             	movzbl %al,%eax
   140003aed:	c1 f8 04             	sar    $0x4,%eax
   140003af0:	83 e0 01             	and    $0x1,%eax
   140003af3:	66 89 45 fa          	mov    %ax,-0x6(%rbp)
   140003af7:	0f b7 45 fc          	movzwl -0x4(%rbp),%eax
   140003afb:	89 c2                	mov    %eax,%edx
   140003afd:	0f b7 45 fe          	movzwl -0x2(%rbp),%eax
   140003b01:	01 c2                	add    %eax,%edx
   140003b03:	0f b7 45 fa          	movzwl -0x6(%rbp),%eax
   140003b07:	01 c2                	add    %eax,%edx
   140003b09:	48 8b 45 10          	mov    0x10(%rbp),%rax
   140003b0d:	88 10                	mov    %dl,(%rax)
   140003b0f:	0f b7 55 fc          	movzwl -0x4(%rbp),%edx
   140003b13:	0f b7 45 fe          	movzwl -0x2(%rbp),%eax
   140003b17:	01 c2                	add    %eax,%edx
   140003b19:	0f b7 45 fa          	movzwl -0x6(%rbp),%eax
   140003b1d:	01 d0                	add    %edx,%eax
   140003b1f:	3d ff 00 00 00       	cmp    $0xff,%eax
   140003b24:	0f 9f c0             	setg   %al
   140003b27:	0f b6 c8             	movzbl %al,%ecx
   140003b2a:	0f b7 45 fc          	movzwl -0x4(%rbp),%eax
   140003b2e:	83 e0 0f             	and    $0xf,%eax
   140003b31:	89 c2                	mov    %eax,%edx
   140003b33:	0f b7 45 fe          	movzwl -0x2(%rbp),%eax
   140003b37:	83 e0 0f             	and    $0xf,%eax
   140003b3a:	01 c2                	add    %eax,%edx
   140003b3c:	0f b7 45 fa          	movzwl -0x6(%rbp),%eax
   140003b40:	01 d0                	add    %edx,%eax
   140003b42:	83 f8 0f             	cmp    $0xf,%eax
   140003b45:	0f 9f c0             	setg   %al
   140003b48:	44 0f b6 c0          	movzbl %al,%r8d
   140003b4c:	48 8b 45 10          	mov    0x10(%rbp),%rax
   140003b50:	0f b6 00             	movzbl (%rax),%eax
   140003b53:	84 c0                	test   %al,%al
   140003b55:	0f 94 c0             	sete   %al
   140003b58:	0f b6 d0             	movzbl %al,%edx
   140003b5b:	48 8b 45 10          	mov    0x10(%rbp),%rax
   140003b5f:	89 4c 24 20          	mov    %ecx,0x20(%rsp)
   140003b63:	45 89 c1             	mov    %r8d,%r9d
   140003b66:	41 b8 00 00 00 00    	mov    $0x0,%r8d
   140003b6c:	48 89 c1             	mov    %rax,%rcx
   140003b6f:	e8 5c e9 ff ff       	call   1400024d0 <cpu_set_flags>
   140003b74:	90                   	nop
   140003b75:	48 83 c4 40          	add    $0x40,%rsp
   140003b79:	5d                   	pop    %rbp
   140003b7a:	c3                   	ret

0000000140003b7b <proc_add>:
   140003b7b:	55                   	push   %rbp
   140003b7c:	48 89 e5             	mov    %rsp,%rbp
   140003b7f:	48 83 ec 50          	sub    $0x50,%rsp
   140003b83:	48 89 4d 10          	mov    %rcx,0x10(%rbp)
   140003b87:	48 8b 45 10          	mov    0x10(%rbp),%rax
   140003b8b:	48 8b 40 18          	mov    0x18(%rax),%rax
   140003b8f:	8b 40 08             	mov    0x8(%rax),%eax
   140003b92:	89 c1                	mov    %eax,%ecx
   140003b94:	e8 76 02 00 00       	call   140003e0f <cpu_read_reg>
   140003b99:	0f b7 d0             	movzwl %ax,%edx
   140003b9c:	48 8b 45 10          	mov    0x10(%rbp),%rax
   140003ba0:	0f b7 40 0c          	movzwl 0xc(%rax),%eax
   140003ba4:	0f b7 c0             	movzwl %ax,%eax
   140003ba7:	01 d0                	add    %edx,%eax
   140003ba9:	89 45 fc             	mov    %eax,-0x4(%rbp)
   140003bac:	48 8b 45 10          	mov    0x10(%rbp),%rax
   140003bb0:	48 8b 40 18          	mov    0x18(%rax),%rax
   140003bb4:	8b 40 08             	mov    0x8(%rax),%eax
   140003bb7:	89 c1                	mov    %eax,%ecx
   140003bb9:	e8 c8 f4 ff ff       	call   140003086 <is_16_bit>
   140003bbe:	88 45 ef             	mov    %al,-0x11(%rbp)
   140003bc1:	80 7d ef 00          	cmpb   $0x0,-0x11(%rbp)
   140003bc5:	74 0a                	je     140003bd1 <proc_add+0x56>
   140003bc7:	b9 01 00 00 00       	mov    $0x1,%ecx
   140003bcc:	e8 28 da ff ff       	call   1400015f9 <emu_cycles>
   140003bd1:	48 8b 45 10          	mov    0x10(%rbp),%rax
   140003bd5:	48 8b 40 18          	mov    0x18(%rax),%rax
   140003bd9:	8b 40 08             	mov    0x8(%rax),%eax
   140003bdc:	83 f8 0d             	cmp    $0xd,%eax
   140003bdf:	75 25                	jne    140003c06 <proc_add+0x8b>
   140003be1:	48 8b 45 10          	mov    0x10(%rbp),%rax
   140003be5:	48 8b 40 18          	mov    0x18(%rax),%rax
   140003be9:	8b 40 08             	mov    0x8(%rax),%eax
   140003bec:	89 c1                	mov    %eax,%ecx
   140003bee:	e8 1c 02 00 00       	call   140003e0f <cpu_read_reg>
   140003bf3:	0f b7 d0             	movzwl %ax,%edx
   140003bf6:	48 8b 45 10          	mov    0x10(%rbp),%rax
   140003bfa:	0f b7 40 0c          	movzwl 0xc(%rax),%eax
   140003bfe:	0f be c0             	movsbl %al,%eax
   140003c01:	01 d0                	add    %edx,%eax
   140003c03:	89 45 fc             	mov    %eax,-0x4(%rbp)
   140003c06:	8b 45 fc             	mov    -0x4(%rbp),%eax
   140003c09:	0f b6 c0             	movzbl %al,%eax
   140003c0c:	85 c0                	test   %eax,%eax
   140003c0e:	0f 94 c0             	sete   %al
   140003c11:	0f b6 c0             	movzbl %al,%eax
   140003c14:	89 45 f8             	mov    %eax,-0x8(%rbp)
   140003c17:	48 8b 45 10          	mov    0x10(%rbp),%rax
   140003c1b:	48 8b 40 18          	mov    0x18(%rax),%rax
   140003c1f:	8b 40 08             	mov    0x8(%rax),%eax
   140003c22:	89 c1                	mov    %eax,%ecx
   140003c24:	e8 e6 01 00 00       	call   140003e0f <cpu_read_reg>
   140003c29:	0f b7 c0             	movzwl %ax,%eax
   140003c2c:	83 e0 0f             	and    $0xf,%eax
   140003c2f:	89 c2                	mov    %eax,%edx
   140003c31:	48 8b 45 10          	mov    0x10(%rbp),%rax
   140003c35:	0f b7 40 0c          	movzwl 0xc(%rax),%eax
   140003c39:	0f b7 c0             	movzwl %ax,%eax
   140003c3c:	83 e0 0f             	and    $0xf,%eax
   140003c3f:	01 d0                	add    %edx,%eax
   140003c41:	83 f8 0f             	cmp    $0xf,%eax
   140003c44:	0f 9f c0             	setg   %al
   140003c47:	0f b6 c0             	movzbl %al,%eax
   140003c4a:	89 45 f4             	mov    %eax,-0xc(%rbp)
   140003c4d:	48 8b 45 10          	mov    0x10(%rbp),%rax
   140003c51:	48 8b 40 18          	mov    0x18(%rax),%rax
   140003c55:	8b 40 08             	mov    0x8(%rax),%eax
   140003c58:	89 c1                	mov    %eax,%ecx
   140003c5a:	e8 b0 01 00 00       	call   140003e0f <cpu_read_reg>
   140003c5f:	0f b7 c0             	movzwl %ax,%eax
   140003c62:	0f b6 d0             	movzbl %al,%edx
   140003c65:	48 8b 45 10          	mov    0x10(%rbp),%rax
   140003c69:	0f b7 40 0c          	movzwl 0xc(%rax),%eax
   140003c6d:	0f b7 c0             	movzwl %ax,%eax
   140003c70:	0f b6 c0             	movzbl %al,%eax
   140003c73:	01 d0                	add    %edx,%eax
   140003c75:	3d ff 00 00 00       	cmp    $0xff,%eax
   140003c7a:	0f 9f c0             	setg   %al
   140003c7d:	0f b6 c0             	movzbl %al,%eax
   140003c80:	89 45 f0             	mov    %eax,-0x10(%rbp)
   140003c83:	80 7d ef 00          	cmpb   $0x0,-0x11(%rbp)
   140003c87:	74 78                	je     140003d01 <proc_add+0x186>
   140003c89:	c7 45 f8 ff ff ff ff 	movl   $0xffffffff,-0x8(%rbp)
   140003c90:	48 8b 45 10          	mov    0x10(%rbp),%rax
   140003c94:	48 8b 40 18          	mov    0x18(%rax),%rax
   140003c98:	8b 40 08             	mov    0x8(%rax),%eax
   140003c9b:	89 c1                	mov    %eax,%ecx
   140003c9d:	e8 6d 01 00 00       	call   140003e0f <cpu_read_reg>
   140003ca2:	0f b7 c0             	movzwl %ax,%eax
   140003ca5:	25 ff 0f 00 00       	and    $0xfff,%eax
   140003caa:	89 c2                	mov    %eax,%edx
   140003cac:	48 8b 45 10          	mov    0x10(%rbp),%rax
   140003cb0:	0f b7 40 0c          	movzwl 0xc(%rax),%eax
   140003cb4:	0f b7 c0             	movzwl %ax,%eax
   140003cb7:	25 ff 0f 00 00       	and    $0xfff,%eax
   140003cbc:	01 d0                	add    %edx,%eax
   140003cbe:	3d ff 0f 00 00       	cmp    $0xfff,%eax
   140003cc3:	0f 9f c0             	setg   %al
   140003cc6:	0f b6 c0             	movzbl %al,%eax
   140003cc9:	89 45 f4             	mov    %eax,-0xc(%rbp)
   140003ccc:	48 8b 45 10          	mov    0x10(%rbp),%rax
   140003cd0:	48 8b 40 18          	mov    0x18(%rax),%rax
   140003cd4:	8b 40 08             	mov    0x8(%rax),%eax
   140003cd7:	89 c1                	mov    %eax,%ecx
   140003cd9:	e8 31 01 00 00       	call   140003e0f <cpu_read_reg>
   140003cde:	0f b7 d0             	movzwl %ax,%edx
   140003ce1:	48 8b 45 10          	mov    0x10(%rbp),%rax
   140003ce5:	0f b7 40 0c          	movzwl 0xc(%rax),%eax
   140003ce9:	0f b7 c0             	movzwl %ax,%eax
   140003cec:	01 d0                	add    %edx,%eax
   140003cee:	89 45 e8             	mov    %eax,-0x18(%rbp)
   140003cf1:	81 7d e8 ff ff 00 00 	cmpl   $0xffff,-0x18(%rbp)
   140003cf8:	0f 97 c0             	seta   %al
   140003cfb:	0f b6 c0             	movzbl %al,%eax
   140003cfe:	89 45 f0             	mov    %eax,-0x10(%rbp)
   140003d01:	48 8b 45 10          	mov    0x10(%rbp),%rax
   140003d05:	48 8b 40 18          	mov    0x18(%rax),%rax
   140003d09:	8b 40 08             	mov    0x8(%rax),%eax
   140003d0c:	83 f8 0d             	cmp    $0xd,%eax
   140003d0f:	75 73                	jne    140003d84 <proc_add+0x209>
   140003d11:	c7 45 f8 00 00 00 00 	movl   $0x0,-0x8(%rbp)
   140003d18:	48 8b 45 10          	mov    0x10(%rbp),%rax
   140003d1c:	48 8b 40 18          	mov    0x18(%rax),%rax
   140003d20:	8b 40 08             	mov    0x8(%rax),%eax
   140003d23:	89 c1                	mov    %eax,%ecx
   140003d25:	e8 e5 00 00 00       	call   140003e0f <cpu_read_reg>
   140003d2a:	0f b7 c0             	movzwl %ax,%eax
   140003d2d:	83 e0 0f             	and    $0xf,%eax
   140003d30:	89 c2                	mov    %eax,%edx
   140003d32:	48 8b 45 10          	mov    0x10(%rbp),%rax
   140003d36:	0f b7 40 0c          	movzwl 0xc(%rax),%eax
   140003d3a:	0f b7 c0             	movzwl %ax,%eax
   140003d3d:	83 e0 0f             	and    $0xf,%eax
   140003d40:	01 d0                	add    %edx,%eax
   140003d42:	83 f8 0f             	cmp    $0xf,%eax
   140003d45:	0f 9f c0             	setg   %al
   140003d48:	0f b6 c0             	movzbl %al,%eax
   140003d4b:	89 45 f4             	mov    %eax,-0xc(%rbp)
   140003d4e:	48 8b 45 10          	mov    0x10(%rbp),%rax
   140003d52:	48 8b 40 18          	mov    0x18(%rax),%rax
   140003d56:	8b 40 08             	mov    0x8(%rax),%eax
   140003d59:	89 c1                	mov    %eax,%ecx
   140003d5b:	e8 af 00 00 00       	call   140003e0f <cpu_read_reg>
   140003d60:	0f b7 c0             	movzwl %ax,%eax
   140003d63:	0f b6 d0             	movzbl %al,%edx
   140003d66:	48 8b 45 10          	mov    0x10(%rbp),%rax
   140003d6a:	0f b7 40 0c          	movzwl 0xc(%rax),%eax
   140003d6e:	0f b7 c0             	movzwl %ax,%eax
   140003d71:	0f b6 c0             	movzbl %al,%eax
   140003d74:	01 d0                	add    %edx,%eax
   140003d76:	3d 00 01 00 00       	cmp    $0x100,%eax
   140003d7b:	0f 9f c0             	setg   %al
   140003d7e:	0f b6 c0             	movzbl %al,%eax
   140003d81:	89 45 f0             	mov    %eax,-0x10(%rbp)
   140003d84:	8b 45 fc             	mov    -0x4(%rbp),%eax
   140003d87:	0f b7 d0             	movzwl %ax,%edx
   140003d8a:	48 8b 45 10          	mov    0x10(%rbp),%rax
   140003d8e:	48 8b 40 18          	mov    0x18(%rax),%rax
   140003d92:	8b 40 08             	mov    0x8(%rax),%eax
   140003d95:	89 c1                	mov    %eax,%ecx
   140003d97:	e8 cb 01 00 00       	call   140003f67 <cpu_set_reg>
   140003d9c:	8b 45 f0             	mov    -0x10(%rbp),%eax
   140003d9f:	0f be c8             	movsbl %al,%ecx
   140003da2:	8b 45 f4             	mov    -0xc(%rbp),%eax
   140003da5:	44 0f be c0          	movsbl %al,%r8d
   140003da9:	8b 45 f8             	mov    -0x8(%rbp),%eax
   140003dac:	0f be d0             	movsbl %al,%edx
   140003daf:	48 8b 45 10          	mov    0x10(%rbp),%rax
   140003db3:	89 4c 24 20          	mov    %ecx,0x20(%rsp)
   140003db7:	45 89 c1             	mov    %r8d,%r9d
   140003dba:	41 b8 00 00 00 00    	mov    $0x0,%r8d
   140003dc0:	48 89 c1             	mov    %rax,%rcx
   140003dc3:	e8 08 e7 ff ff       	call   1400024d0 <cpu_set_flags>
   140003dc8:	90                   	nop
   140003dc9:	48 83 c4 50          	add    $0x50,%rsp
   140003dcd:	5d                   	pop    %rbp
   140003dce:	c3                   	ret

0000000140003dcf <inst_get_processor>:
   140003dcf:	55                   	push   %rbp
   140003dd0:	48 89 e5             	mov    %rsp,%rbp
   140003dd3:	89 4d 10             	mov    %ecx,0x10(%rbp)
   140003dd6:	8b 45 10             	mov    0x10(%rbp),%eax
   140003dd9:	48 8d 14 c5 00 00 00 	lea    0x0(,%rax,8),%rdx
   140003de0:	00 
   140003de1:	48 8d 05 98 28 00 00 	lea    0x2898(%rip),%rax        # 140006680 <processors>
   140003de8:	48 8b 04 02          	mov    (%rdx,%rax,1),%rax
   140003dec:	5d                   	pop    %rbp
   140003ded:	c3                   	ret
   140003dee:	90                   	nop
   140003def:	90                   	nop

0000000140003df0 <reverse>:
   140003df0:	55                   	push   %rbp
   140003df1:	48 89 e5             	mov    %rsp,%rbp
   140003df4:	89 c8                	mov    %ecx,%eax
   140003df6:	66 89 45 10          	mov    %ax,0x10(%rbp)
   140003dfa:	0f b7 45 10          	movzwl 0x10(%rbp),%eax
   140003dfe:	66 c1 e8 08          	shr    $0x8,%ax
   140003e02:	89 c2                	mov    %eax,%edx
   140003e04:	0f b7 45 10          	movzwl 0x10(%rbp),%eax
   140003e08:	c1 e0 08             	shl    $0x8,%eax
   140003e0b:	09 d0                	or     %edx,%eax
   140003e0d:	5d                   	pop    %rbp
   140003e0e:	c3                   	ret

0000000140003e0f <cpu_read_reg>:
   140003e0f:	55                   	push   %rbp
   140003e10:	48 89 e5             	mov    %rsp,%rbp
   140003e13:	48 83 ec 20          	sub    $0x20,%rsp
   140003e17:	89 4d 10             	mov    %ecx,0x10(%rbp)
   140003e1a:	83 7d 10 0e          	cmpl   $0xe,0x10(%rbp)
   140003e1e:	0f 87 38 01 00 00    	ja     140003f5c <cpu_read_reg+0x14d>
   140003e24:	8b 45 10             	mov    0x10(%rbp),%eax
   140003e27:	48 8d 14 85 00 00 00 	lea    0x0(,%rax,4),%rdx
   140003e2e:	00 
   140003e2f:	48 8d 05 da 58 00 00 	lea    0x58da(%rip),%rax        # 140009710 <.rdata>
   140003e36:	8b 04 02             	mov    (%rdx,%rax,1),%eax
   140003e39:	48 98                	cltq
   140003e3b:	48 8d 15 ce 58 00 00 	lea    0x58ce(%rip),%rdx        # 140009710 <.rdata>
   140003e42:	48 01 d0             	add    %rdx,%rax
   140003e45:	ff e0                	jmp    *%rax
   140003e47:	48 8b 05 32 60 00 00 	mov    0x6032(%rip),%rax        # 140009e80 <.refptr.ctx>
   140003e4e:	0f b6 00             	movzbl (%rax),%eax
   140003e51:	0f b6 c0             	movzbl %al,%eax
   140003e54:	e9 08 01 00 00       	jmp    140003f61 <cpu_read_reg+0x152>
   140003e59:	48 8b 05 20 60 00 00 	mov    0x6020(%rip),%rax        # 140009e80 <.refptr.ctx>
   140003e60:	0f b6 40 01          	movzbl 0x1(%rax),%eax
   140003e64:	0f b6 c0             	movzbl %al,%eax
   140003e67:	e9 f5 00 00 00       	jmp    140003f61 <cpu_read_reg+0x152>
   140003e6c:	48 8b 05 0d 60 00 00 	mov    0x600d(%rip),%rax        # 140009e80 <.refptr.ctx>
   140003e73:	0f b6 40 02          	movzbl 0x2(%rax),%eax
   140003e77:	0f b6 c0             	movzbl %al,%eax
   140003e7a:	e9 e2 00 00 00       	jmp    140003f61 <cpu_read_reg+0x152>
   140003e7f:	48 8b 05 fa 5f 00 00 	mov    0x5ffa(%rip),%rax        # 140009e80 <.refptr.ctx>
   140003e86:	0f b6 40 03          	movzbl 0x3(%rax),%eax
   140003e8a:	0f b6 c0             	movzbl %al,%eax
   140003e8d:	e9 cf 00 00 00       	jmp    140003f61 <cpu_read_reg+0x152>
   140003e92:	48 8b 05 e7 5f 00 00 	mov    0x5fe7(%rip),%rax        # 140009e80 <.refptr.ctx>
   140003e99:	0f b6 40 04          	movzbl 0x4(%rax),%eax
   140003e9d:	0f b6 c0             	movzbl %al,%eax
   140003ea0:	e9 bc 00 00 00       	jmp    140003f61 <cpu_read_reg+0x152>
   140003ea5:	48 8b 05 d4 5f 00 00 	mov    0x5fd4(%rip),%rax        # 140009e80 <.refptr.ctx>
   140003eac:	0f b6 40 05          	movzbl 0x5(%rax),%eax
   140003eb0:	0f b6 c0             	movzbl %al,%eax
   140003eb3:	e9 a9 00 00 00       	jmp    140003f61 <cpu_read_reg+0x152>
   140003eb8:	48 8b 05 c1 5f 00 00 	mov    0x5fc1(%rip),%rax        # 140009e80 <.refptr.ctx>
   140003ebf:	0f b6 40 06          	movzbl 0x6(%rax),%eax
   140003ec3:	0f b6 c0             	movzbl %al,%eax
   140003ec6:	e9 96 00 00 00       	jmp    140003f61 <cpu_read_reg+0x152>
   140003ecb:	48 8b 05 ae 5f 00 00 	mov    0x5fae(%rip),%rax        # 140009e80 <.refptr.ctx>
   140003ed2:	0f b6 40 07          	movzbl 0x7(%rax),%eax
   140003ed6:	0f b6 c0             	movzbl %al,%eax
   140003ed9:	e9 83 00 00 00       	jmp    140003f61 <cpu_read_reg+0x152>
   140003ede:	48 8b 05 9b 5f 00 00 	mov    0x5f9b(%rip),%rax        # 140009e80 <.refptr.ctx>
   140003ee5:	0f b7 00             	movzwl (%rax),%eax
   140003ee8:	0f b7 c0             	movzwl %ax,%eax
   140003eeb:	89 c1                	mov    %eax,%ecx
   140003eed:	e8 fe fe ff ff       	call   140003df0 <reverse>
   140003ef2:	eb 6d                	jmp    140003f61 <cpu_read_reg+0x152>
   140003ef4:	48 8b 05 85 5f 00 00 	mov    0x5f85(%rip),%rax        # 140009e80 <.refptr.ctx>
   140003efb:	48 83 c0 02          	add    $0x2,%rax
   140003eff:	0f b7 00             	movzwl (%rax),%eax
   140003f02:	0f b7 c0             	movzwl %ax,%eax
   140003f05:	89 c1                	mov    %eax,%ecx
   140003f07:	e8 e4 fe ff ff       	call   140003df0 <reverse>
   140003f0c:	eb 53                	jmp    140003f61 <cpu_read_reg+0x152>
   140003f0e:	48 8b 05 6b 5f 00 00 	mov    0x5f6b(%rip),%rax        # 140009e80 <.refptr.ctx>
   140003f15:	48 83 c0 04          	add    $0x4,%rax
   140003f19:	0f b7 00             	movzwl (%rax),%eax
   140003f1c:	0f b7 c0             	movzwl %ax,%eax
   140003f1f:	89 c1                	mov    %eax,%ecx
   140003f21:	e8 ca fe ff ff       	call   140003df0 <reverse>
   140003f26:	eb 39                	jmp    140003f61 <cpu_read_reg+0x152>
   140003f28:	48 8b 05 51 5f 00 00 	mov    0x5f51(%rip),%rax        # 140009e80 <.refptr.ctx>
   140003f2f:	48 83 c0 06          	add    $0x6,%rax
   140003f33:	0f b7 00             	movzwl (%rax),%eax
   140003f36:	0f b7 c0             	movzwl %ax,%eax
   140003f39:	89 c1                	mov    %eax,%ecx
   140003f3b:	e8 b0 fe ff ff       	call   140003df0 <reverse>
   140003f40:	eb 1f                	jmp    140003f61 <cpu_read_reg+0x152>
   140003f42:	48 8b 05 37 5f 00 00 	mov    0x5f37(%rip),%rax        # 140009e80 <.refptr.ctx>
   140003f49:	0f b7 40 08          	movzwl 0x8(%rax),%eax
   140003f4d:	eb 12                	jmp    140003f61 <cpu_read_reg+0x152>
   140003f4f:	48 8b 05 2a 5f 00 00 	mov    0x5f2a(%rip),%rax        # 140009e80 <.refptr.ctx>
   140003f56:	0f b7 40 0a          	movzwl 0xa(%rax),%eax
   140003f5a:	eb 05                	jmp    140003f61 <cpu_read_reg+0x152>
   140003f5c:	b8 00 00 00 00       	mov    $0x0,%eax
   140003f61:	48 83 c4 20          	add    $0x20,%rsp
   140003f65:	5d                   	pop    %rbp
   140003f66:	c3                   	ret

0000000140003f67 <cpu_set_reg>:
   140003f67:	55                   	push   %rbp
   140003f68:	53                   	push   %rbx
   140003f69:	48 83 ec 28          	sub    $0x28,%rsp
   140003f6d:	48 8d 6c 24 20       	lea    0x20(%rsp),%rbp
   140003f72:	89 4d 20             	mov    %ecx,0x20(%rbp)
   140003f75:	89 d0                	mov    %edx,%eax
   140003f77:	66 89 45 28          	mov    %ax,0x28(%rbp)
   140003f7b:	83 7d 20 0e          	cmpl   $0xe,0x20(%rbp)
   140003f7f:	0f 87 55 01 00 00    	ja     1400040da <cpu_set_reg+0x173>
   140003f85:	8b 45 20             	mov    0x20(%rbp),%eax
   140003f88:	48 8d 14 85 00 00 00 	lea    0x0(,%rax,4),%rdx
   140003f8f:	00 
   140003f90:	48 8d 05 b5 57 00 00 	lea    0x57b5(%rip),%rax        # 14000974c <.rdata+0x3c>
   140003f97:	8b 04 02             	mov    (%rdx,%rax,1),%eax
   140003f9a:	48 98                	cltq
   140003f9c:	48 8d 15 a9 57 00 00 	lea    0x57a9(%rip),%rdx        # 14000974c <.rdata+0x3c>
   140003fa3:	48 01 d0             	add    %rdx,%rax
   140003fa6:	ff e0                	jmp    *%rax
   140003fa8:	0f b7 45 28          	movzwl 0x28(%rbp),%eax
   140003fac:	89 c2                	mov    %eax,%edx
   140003fae:	48 8b 05 cb 5e 00 00 	mov    0x5ecb(%rip),%rax        # 140009e80 <.refptr.ctx>
   140003fb5:	88 10                	mov    %dl,(%rax)
   140003fb7:	e9 1e 01 00 00       	jmp    1400040da <cpu_set_reg+0x173>
   140003fbc:	0f b7 45 28          	movzwl 0x28(%rbp),%eax
   140003fc0:	89 c2                	mov    %eax,%edx
   140003fc2:	48 8b 05 b7 5e 00 00 	mov    0x5eb7(%rip),%rax        # 140009e80 <.refptr.ctx>
   140003fc9:	88 50 01             	mov    %dl,0x1(%rax)
   140003fcc:	e9 09 01 00 00       	jmp    1400040da <cpu_set_reg+0x173>
   140003fd1:	0f b7 45 28          	movzwl 0x28(%rbp),%eax
   140003fd5:	89 c2                	mov    %eax,%edx
   140003fd7:	48 8b 05 a2 5e 00 00 	mov    0x5ea2(%rip),%rax        # 140009e80 <.refptr.ctx>
   140003fde:	88 50 02             	mov    %dl,0x2(%rax)
   140003fe1:	e9 f4 00 00 00       	jmp    1400040da <cpu_set_reg+0x173>
   140003fe6:	0f b7 45 28          	movzwl 0x28(%rbp),%eax
   140003fea:	89 c2                	mov    %eax,%edx
   140003fec:	48 8b 05 8d 5e 00 00 	mov    0x5e8d(%rip),%rax        # 140009e80 <.refptr.ctx>
   140003ff3:	88 50 03             	mov    %dl,0x3(%rax)
   140003ff6:	e9 df 00 00 00       	jmp    1400040da <cpu_set_reg+0x173>
   140003ffb:	0f b7 45 28          	movzwl 0x28(%rbp),%eax
   140003fff:	89 c2                	mov    %eax,%edx
   140004001:	48 8b 05 78 5e 00 00 	mov    0x5e78(%rip),%rax        # 140009e80 <.refptr.ctx>
   140004008:	88 50 04             	mov    %dl,0x4(%rax)
   14000400b:	e9 ca 00 00 00       	jmp    1400040da <cpu_set_reg+0x173>
   140004010:	0f b7 45 28          	movzwl 0x28(%rbp),%eax
   140004014:	89 c2                	mov    %eax,%edx
   140004016:	48 8b 05 63 5e 00 00 	mov    0x5e63(%rip),%rax        # 140009e80 <.refptr.ctx>
   14000401d:	88 50 05             	mov    %dl,0x5(%rax)
   140004020:	e9 b5 00 00 00       	jmp    1400040da <cpu_set_reg+0x173>
   140004025:	0f b7 45 28          	movzwl 0x28(%rbp),%eax
   140004029:	89 c2                	mov    %eax,%edx
   14000402b:	48 8b 05 4e 5e 00 00 	mov    0x5e4e(%rip),%rax        # 140009e80 <.refptr.ctx>
   140004032:	88 50 06             	mov    %dl,0x6(%rax)
   140004035:	e9 a0 00 00 00       	jmp    1400040da <cpu_set_reg+0x173>
   14000403a:	0f b7 45 28          	movzwl 0x28(%rbp),%eax
   14000403e:	89 c2                	mov    %eax,%edx
   140004040:	48 8b 05 39 5e 00 00 	mov    0x5e39(%rip),%rax        # 140009e80 <.refptr.ctx>
   140004047:	88 50 07             	mov    %dl,0x7(%rax)
   14000404a:	e9 8b 00 00 00       	jmp    1400040da <cpu_set_reg+0x173>
   14000404f:	0f b7 45 28          	movzwl 0x28(%rbp),%eax
   140004053:	48 8b 1d 26 5e 00 00 	mov    0x5e26(%rip),%rbx        # 140009e80 <.refptr.ctx>
   14000405a:	89 c1                	mov    %eax,%ecx
   14000405c:	e8 8f fd ff ff       	call   140003df0 <reverse>
   140004061:	66 89 03             	mov    %ax,(%rbx)
   140004064:	eb 74                	jmp    1400040da <cpu_set_reg+0x173>
   140004066:	0f b7 45 28          	movzwl 0x28(%rbp),%eax
   14000406a:	48 8b 15 0f 5e 00 00 	mov    0x5e0f(%rip),%rdx        # 140009e80 <.refptr.ctx>
   140004071:	48 8d 5a 02          	lea    0x2(%rdx),%rbx
   140004075:	89 c1                	mov    %eax,%ecx
   140004077:	e8 74 fd ff ff       	call   140003df0 <reverse>
   14000407c:	66 89 03             	mov    %ax,(%rbx)
   14000407f:	eb 59                	jmp    1400040da <cpu_set_reg+0x173>
   140004081:	0f b7 45 28          	movzwl 0x28(%rbp),%eax
   140004085:	48 8b 15 f4 5d 00 00 	mov    0x5df4(%rip),%rdx        # 140009e80 <.refptr.ctx>
   14000408c:	48 8d 5a 04          	lea    0x4(%rdx),%rbx
   140004090:	89 c1                	mov    %eax,%ecx
   140004092:	e8 59 fd ff ff       	call   140003df0 <reverse>
   140004097:	66 89 03             	mov    %ax,(%rbx)
   14000409a:	eb 3e                	jmp    1400040da <cpu_set_reg+0x173>
   14000409c:	0f b7 45 28          	movzwl 0x28(%rbp),%eax
   1400040a0:	48 8b 15 d9 5d 00 00 	mov    0x5dd9(%rip),%rdx        # 140009e80 <.refptr.ctx>
   1400040a7:	48 8d 5a 06          	lea    0x6(%rdx),%rbx
   1400040ab:	89 c1                	mov    %eax,%ecx
   1400040ad:	e8 3e fd ff ff       	call   140003df0 <reverse>
   1400040b2:	66 89 03             	mov    %ax,(%rbx)
   1400040b5:	eb 23                	jmp    1400040da <cpu_set_reg+0x173>
   1400040b7:	48 8b 05 c2 5d 00 00 	mov    0x5dc2(%rip),%rax        # 140009e80 <.refptr.ctx>
   1400040be:	0f b7 55 28          	movzwl 0x28(%rbp),%edx
   1400040c2:	66 89 50 08          	mov    %dx,0x8(%rax)
   1400040c6:	eb 12                	jmp    1400040da <cpu_set_reg+0x173>
   1400040c8:	48 8b 05 b1 5d 00 00 	mov    0x5db1(%rip),%rax        # 140009e80 <.refptr.ctx>
   1400040cf:	0f b7 55 28          	movzwl 0x28(%rbp),%edx
   1400040d3:	66 89 50 0a          	mov    %dx,0xa(%rax)
   1400040d7:	eb 01                	jmp    1400040da <cpu_set_reg+0x173>
   1400040d9:	90                   	nop
   1400040da:	90                   	nop
   1400040db:	48 83 c4 28          	add    $0x28,%rsp
   1400040df:	5b                   	pop    %rbx
   1400040e0:	5d                   	pop    %rbp
   1400040e1:	c3                   	ret

00000001400040e2 <cpu_read_reg8>:
   1400040e2:	55                   	push   %rbp
   1400040e3:	48 89 e5             	mov    %rsp,%rbp
   1400040e6:	48 83 ec 20          	sub    $0x20,%rsp
   1400040ea:	89 4d 10             	mov    %ecx,0x10(%rbp)
   1400040ed:	83 7d 10 0c          	cmpl   $0xc,0x10(%rbp)
   1400040f1:	0f 87 af 00 00 00    	ja     1400041a6 <cpu_read_reg8+0xc4>
   1400040f7:	8b 45 10             	mov    0x10(%rbp),%eax
   1400040fa:	48 8d 14 85 00 00 00 	lea    0x0(,%rax,4),%rdx
   140004101:	00 
   140004102:	48 8d 05 af 56 00 00 	lea    0x56af(%rip),%rax        # 1400097b8 <.rdata+0xa8>
   140004109:	8b 04 02             	mov    (%rdx,%rax,1),%eax
   14000410c:	48 98                	cltq
   14000410e:	48 8d 15 a3 56 00 00 	lea    0x56a3(%rip),%rdx        # 1400097b8 <.rdata+0xa8>
   140004115:	48 01 d0             	add    %rdx,%rax
   140004118:	ff e0                	jmp    *%rax
   14000411a:	48 8b 05 5f 5d 00 00 	mov    0x5d5f(%rip),%rax        # 140009e80 <.refptr.ctx>
   140004121:	0f b6 00             	movzbl (%rax),%eax
   140004124:	e9 c6 00 00 00       	jmp    1400041ef <cpu_read_reg8+0x10d>
   140004129:	48 8b 05 50 5d 00 00 	mov    0x5d50(%rip),%rax        # 140009e80 <.refptr.ctx>
   140004130:	0f b6 40 01          	movzbl 0x1(%rax),%eax
   140004134:	e9 b6 00 00 00       	jmp    1400041ef <cpu_read_reg8+0x10d>
   140004139:	48 8b 05 40 5d 00 00 	mov    0x5d40(%rip),%rax        # 140009e80 <.refptr.ctx>
   140004140:	0f b6 40 02          	movzbl 0x2(%rax),%eax
   140004144:	e9 a6 00 00 00       	jmp    1400041ef <cpu_read_reg8+0x10d>
   140004149:	48 8b 05 30 5d 00 00 	mov    0x5d30(%rip),%rax        # 140009e80 <.refptr.ctx>
   140004150:	0f b6 40 03          	movzbl 0x3(%rax),%eax
   140004154:	e9 96 00 00 00       	jmp    1400041ef <cpu_read_reg8+0x10d>
   140004159:	48 8b 05 20 5d 00 00 	mov    0x5d20(%rip),%rax        # 140009e80 <.refptr.ctx>
   140004160:	0f b6 40 04          	movzbl 0x4(%rax),%eax
   140004164:	e9 86 00 00 00       	jmp    1400041ef <cpu_read_reg8+0x10d>
   140004169:	48 8b 05 10 5d 00 00 	mov    0x5d10(%rip),%rax        # 140009e80 <.refptr.ctx>
   140004170:	0f b6 40 05          	movzbl 0x5(%rax),%eax
   140004174:	eb 79                	jmp    1400041ef <cpu_read_reg8+0x10d>
   140004176:	48 8b 05 03 5d 00 00 	mov    0x5d03(%rip),%rax        # 140009e80 <.refptr.ctx>
   14000417d:	0f b6 40 06          	movzbl 0x6(%rax),%eax
   140004181:	eb 6c                	jmp    1400041ef <cpu_read_reg8+0x10d>
   140004183:	48 8b 05 f6 5c 00 00 	mov    0x5cf6(%rip),%rax        # 140009e80 <.refptr.ctx>
   14000418a:	0f b6 40 07          	movzbl 0x7(%rax),%eax
   14000418e:	eb 5f                	jmp    1400041ef <cpu_read_reg8+0x10d>
   140004190:	b9 0c 00 00 00       	mov    $0xc,%ecx
   140004195:	e8 75 fc ff ff       	call   140003e0f <cpu_read_reg>
   14000419a:	0f b7 c0             	movzwl %ax,%eax
   14000419d:	89 c1                	mov    %eax,%ecx
   14000419f:	e8 fc 05 00 00       	call   1400047a0 <bus_read>
   1400041a4:	eb 49                	jmp    1400041ef <cpu_read_reg8+0x10d>
   1400041a6:	8b 45 10             	mov    0x10(%rbp),%eax
   1400041a9:	89 c2                	mov    %eax,%edx
   1400041ab:	48 8d 05 d6 55 00 00 	lea    0x55d6(%rip),%rax        # 140009788 <.rdata+0x78>
   1400041b2:	48 89 c1             	mov    %rax,%rcx
   1400041b5:	e8 96 1a 00 00       	call   140005c50 <printf>
   1400041ba:	b9 02 00 00 00       	mov    $0x2,%ecx
   1400041bf:	48 8b 05 4a c2 00 00 	mov    0xc24a(%rip),%rax        # 140010410 <__imp___acrt_iob_func>
   1400041c6:	ff d0                	call   *%rax
   1400041c8:	49 89 c1             	mov    %rax,%r9
   1400041cb:	41 b8 14 00 00 00    	mov    $0x14,%r8d
   1400041d1:	ba 01 00 00 00       	mov    $0x1,%edx
   1400041d6:	48 8d 05 c3 55 00 00 	lea    0x55c3(%rip),%rax        # 1400097a0 <.rdata+0x90>
   1400041dd:	48 89 c1             	mov    %rax,%rcx
   1400041e0:	e8 fb 1b 00 00       	call   140005de0 <fwrite>
   1400041e5:	b9 fb ff ff ff       	mov    $0xfffffffb,%ecx
   1400041ea:	e8 69 1c 00 00       	call   140005e58 <exit>
   1400041ef:	48 83 c4 20          	add    $0x20,%rsp
   1400041f3:	5d                   	pop    %rbp
   1400041f4:	c3                   	ret

00000001400041f5 <cpu_set_reg8>:
   1400041f5:	55                   	push   %rbp
   1400041f6:	53                   	push   %rbx
   1400041f7:	48 83 ec 28          	sub    $0x28,%rsp
   1400041fb:	48 8d 6c 24 20       	lea    0x20(%rsp),%rbp
   140004200:	89 4d 20             	mov    %ecx,0x20(%rbp)
   140004203:	89 d0                	mov    %edx,%eax
   140004205:	88 45 28             	mov    %al,0x28(%rbp)
   140004208:	83 7d 20 0c          	cmpl   $0xc,0x20(%rbp)
   14000420c:	0f 87 d0 00 00 00    	ja     1400042e2 <cpu_set_reg8+0xed>
   140004212:	8b 45 20             	mov    0x20(%rbp),%eax
   140004215:	48 8d 14 85 00 00 00 	lea    0x0(,%rax,4),%rdx
   14000421c:	00 
   14000421d:	48 8d 05 c8 55 00 00 	lea    0x55c8(%rip),%rax        # 1400097ec <.rdata+0xdc>
   140004224:	8b 04 02             	mov    (%rdx,%rax,1),%eax
   140004227:	48 98                	cltq
   140004229:	48 8d 15 bc 55 00 00 	lea    0x55bc(%rip),%rdx        # 1400097ec <.rdata+0xdc>
   140004230:	48 01 d0             	add    %rdx,%rax
   140004233:	ff e0                	jmp    *%rax
   140004235:	48 8b 05 44 5c 00 00 	mov    0x5c44(%rip),%rax        # 140009e80 <.refptr.ctx>
   14000423c:	0f b6 55 28          	movzbl 0x28(%rbp),%edx
   140004240:	88 10                	mov    %dl,(%rax)
   140004242:	e9 e4 00 00 00       	jmp    14000432b <cpu_set_reg8+0x136>
   140004247:	48 8b 05 32 5c 00 00 	mov    0x5c32(%rip),%rax        # 140009e80 <.refptr.ctx>
   14000424e:	0f b6 55 28          	movzbl 0x28(%rbp),%edx
   140004252:	88 50 01             	mov    %dl,0x1(%rax)
   140004255:	e9 d1 00 00 00       	jmp    14000432b <cpu_set_reg8+0x136>
   14000425a:	48 8b 05 1f 5c 00 00 	mov    0x5c1f(%rip),%rax        # 140009e80 <.refptr.ctx>
   140004261:	0f b6 55 28          	movzbl 0x28(%rbp),%edx
   140004265:	88 50 02             	mov    %dl,0x2(%rax)
   140004268:	e9 be 00 00 00       	jmp    14000432b <cpu_set_reg8+0x136>
   14000426d:	48 8b 05 0c 5c 00 00 	mov    0x5c0c(%rip),%rax        # 140009e80 <.refptr.ctx>
   140004274:	0f b6 55 28          	movzbl 0x28(%rbp),%edx
   140004278:	88 50 03             	mov    %dl,0x3(%rax)
   14000427b:	e9 ab 00 00 00       	jmp    14000432b <cpu_set_reg8+0x136>
   140004280:	48 8b 05 f9 5b 00 00 	mov    0x5bf9(%rip),%rax        # 140009e80 <.refptr.ctx>
   140004287:	0f b6 55 28          	movzbl 0x28(%rbp),%edx
   14000428b:	88 50 04             	mov    %dl,0x4(%rax)
   14000428e:	e9 98 00 00 00       	jmp    14000432b <cpu_set_reg8+0x136>
   140004293:	48 8b 05 e6 5b 00 00 	mov    0x5be6(%rip),%rax        # 140009e80 <.refptr.ctx>
   14000429a:	0f b6 55 28          	movzbl 0x28(%rbp),%edx
   14000429e:	88 50 05             	mov    %dl,0x5(%rax)
   1400042a1:	e9 85 00 00 00       	jmp    14000432b <cpu_set_reg8+0x136>
   1400042a6:	48 8b 05 d3 5b 00 00 	mov    0x5bd3(%rip),%rax        # 140009e80 <.refptr.ctx>
   1400042ad:	0f b6 55 28          	movzbl 0x28(%rbp),%edx
   1400042b1:	88 50 06             	mov    %dl,0x6(%rax)
   1400042b4:	eb 75                	jmp    14000432b <cpu_set_reg8+0x136>
   1400042b6:	48 8b 05 c3 5b 00 00 	mov    0x5bc3(%rip),%rax        # 140009e80 <.refptr.ctx>
   1400042bd:	0f b6 55 28          	movzbl 0x28(%rbp),%edx
   1400042c1:	88 50 07             	mov    %dl,0x7(%rax)
   1400042c4:	eb 65                	jmp    14000432b <cpu_set_reg8+0x136>
   1400042c6:	0f b6 5d 28          	movzbl 0x28(%rbp),%ebx
   1400042ca:	b9 0c 00 00 00       	mov    $0xc,%ecx
   1400042cf:	e8 3b fb ff ff       	call   140003e0f <cpu_read_reg>
   1400042d4:	0f b7 c0             	movzwl %ax,%eax
   1400042d7:	89 da                	mov    %ebx,%edx
   1400042d9:	89 c1                	mov    %eax,%ecx
   1400042db:	e8 eb 05 00 00       	call   1400048cb <bus_write>
   1400042e0:	eb 49                	jmp    14000432b <cpu_set_reg8+0x136>
   1400042e2:	8b 45 20             	mov    0x20(%rbp),%eax
   1400042e5:	89 c2                	mov    %eax,%edx
   1400042e7:	48 8d 05 9a 54 00 00 	lea    0x549a(%rip),%rax        # 140009788 <.rdata+0x78>
   1400042ee:	48 89 c1             	mov    %rax,%rcx
   1400042f1:	e8 5a 19 00 00       	call   140005c50 <printf>
   1400042f6:	b9 02 00 00 00       	mov    $0x2,%ecx
   1400042fb:	48 8b 05 0e c1 00 00 	mov    0xc10e(%rip),%rax        # 140010410 <__imp___acrt_iob_func>
   140004302:	ff d0                	call   *%rax
   140004304:	49 89 c1             	mov    %rax,%r9
   140004307:	41 b8 14 00 00 00    	mov    $0x14,%r8d
   14000430d:	ba 01 00 00 00       	mov    $0x1,%edx
   140004312:	48 8d 05 87 54 00 00 	lea    0x5487(%rip),%rax        # 1400097a0 <.rdata+0x90>
   140004319:	48 89 c1             	mov    %rax,%rcx
   14000431c:	e8 bf 1a 00 00       	call   140005de0 <fwrite>
   140004321:	b9 fb ff ff ff       	mov    $0xfffffffb,%ecx
   140004326:	e8 2d 1b 00 00       	call   140005e58 <exit>
   14000432b:	90                   	nop
   14000432c:	48 83 c4 28          	add    $0x28,%rsp
   140004330:	5b                   	pop    %rbx
   140004331:	5d                   	pop    %rbp
   140004332:	c3                   	ret

0000000140004333 <cpu_get_regs>:
   140004333:	55                   	push   %rbp
   140004334:	48 89 e5             	mov    %rsp,%rbp
   140004337:	48 8b 05 42 5b 00 00 	mov    0x5b42(%rip),%rax        # 140009e80 <.refptr.ctx>
   14000433e:	5d                   	pop    %rbp
   14000433f:	c3                   	ret

0000000140004340 <cpu_get_int_flags>:
   140004340:	55                   	push   %rbp
   140004341:	48 89 e5             	mov    %rsp,%rbp
   140004344:	48 8b 05 35 5b 00 00 	mov    0x5b35(%rip),%rax        # 140009e80 <.refptr.ctx>
   14000434b:	0f b6 40 25          	movzbl 0x25(%rax),%eax
   14000434f:	5d                   	pop    %rbp
   140004350:	c3                   	ret

0000000140004351 <cpu_set_int_flags>:
   140004351:	55                   	push   %rbp
   140004352:	48 89 e5             	mov    %rsp,%rbp
   140004355:	89 c8                	mov    %ecx,%eax
   140004357:	88 45 10             	mov    %al,0x10(%rbp)
   14000435a:	48 8b 05 1f 5b 00 00 	mov    0x5b1f(%rip),%rax        # 140009e80 <.refptr.ctx>
   140004361:	0f b6 55 10          	movzbl 0x10(%rbp),%edx
   140004365:	88 50 25             	mov    %dl,0x25(%rax)
   140004368:	90                   	nop
   140004369:	5d                   	pop    %rbp
   14000436a:	c3                   	ret
   14000436b:	90                   	nop
   14000436c:	90                   	nop
   14000436d:	90                   	nop
   14000436e:	90                   	nop
   14000436f:	90                   	nop

0000000140004370 <instruction_by_opcode>:
   140004370:	55                   	push   %rbp
   140004371:	48 89 e5             	mov    %rsp,%rbp
   140004374:	89 c8                	mov    %ecx,%eax
   140004376:	88 45 10             	mov    %al,0x10(%rbp)
   140004379:	0f b6 45 10          	movzbl 0x10(%rbp),%eax
   14000437d:	48 63 d0             	movslq %eax,%rdx
   140004380:	48 89 d0             	mov    %rdx,%rax
   140004383:	48 01 c0             	add    %rax,%rax
   140004386:	48 01 d0             	add    %rdx,%rax
   140004389:	48 c1 e0 03          	shl    $0x3,%rax
   14000438d:	48 8d 15 0c 24 00 00 	lea    0x240c(%rip),%rdx        # 1400067a0 <instructions>
   140004394:	48 01 d0             	add    %rdx,%rax
   140004397:	5d                   	pop    %rbp
   140004398:	c3                   	ret

0000000140004399 <inst_name>:
   140004399:	55                   	push   %rbp
   14000439a:	48 89 e5             	mov    %rsp,%rbp
   14000439d:	89 4d 10             	mov    %ecx,0x10(%rbp)
   1400043a0:	8b 45 10             	mov    0x10(%rbp),%eax
   1400043a3:	48 8d 14 c5 00 00 00 	lea    0x0(,%rax,8),%rdx
   1400043aa:	00 
   1400043ab:	48 8d 05 ee 3b 00 00 	lea    0x3bee(%rip),%rax        # 140007fa0 <inst_lookup>
   1400043b2:	48 8b 04 02          	mov    (%rdx,%rax,1),%rax
   1400043b6:	5d                   	pop    %rbp
   1400043b7:	c3                   	ret
   1400043b8:	90                   	nop
   1400043b9:	90                   	nop
   1400043ba:	90                   	nop
   1400043bb:	90                   	nop
   1400043bc:	90                   	nop
   1400043bd:	90                   	nop
   1400043be:	90                   	nop
   1400043bf:	90                   	nop

00000001400043c0 <int_handle>:
   1400043c0:	55                   	push   %rbp
   1400043c1:	48 89 e5             	mov    %rsp,%rbp
   1400043c4:	48 83 ec 20          	sub    $0x20,%rsp
   1400043c8:	48 89 4d 10          	mov    %rcx,0x10(%rbp)
   1400043cc:	89 d0                	mov    %edx,%eax
   1400043ce:	66 89 45 18          	mov    %ax,0x18(%rbp)
   1400043d2:	48 8b 45 10          	mov    0x10(%rbp),%rax
   1400043d6:	0f b7 40 08          	movzwl 0x8(%rax),%eax
   1400043da:	0f b7 c0             	movzwl %ax,%eax
   1400043dd:	89 c1                	mov    %eax,%ecx
   1400043df:	e8 4d 02 00 00       	call   140004631 <stack_push16>
   1400043e4:	48 8b 45 10          	mov    0x10(%rbp),%rax
   1400043e8:	0f b7 55 18          	movzwl 0x18(%rbp),%edx
   1400043ec:	66 89 50 08          	mov    %dx,0x8(%rax)
   1400043f0:	90                   	nop
   1400043f1:	48 83 c4 20          	add    $0x20,%rsp
   1400043f5:	5d                   	pop    %rbp
   1400043f6:	c3                   	ret

00000001400043f7 <int_check>:
   1400043f7:	55                   	push   %rbp
   1400043f8:	48 89 e5             	mov    %rsp,%rbp
   1400043fb:	48 83 ec 20          	sub    $0x20,%rsp
   1400043ff:	48 89 4d 10          	mov    %rcx,0x10(%rbp)
   140004403:	89 d0                	mov    %edx,%eax
   140004405:	44 89 45 20          	mov    %r8d,0x20(%rbp)
   140004409:	66 89 45 18          	mov    %ax,0x18(%rbp)
   14000440d:	48 8b 45 10          	mov    0x10(%rbp),%rax
   140004411:	0f b6 40 25          	movzbl 0x25(%rax),%eax
   140004415:	0f b6 c0             	movzbl %al,%eax
   140004418:	23 45 20             	and    0x20(%rbp),%eax
   14000441b:	85 c0                	test   %eax,%eax
   14000441d:	74 4f                	je     14000446e <int_check+0x77>
   14000441f:	48 8b 45 10          	mov    0x10(%rbp),%rax
   140004423:	0f b6 40 24          	movzbl 0x24(%rax),%eax
   140004427:	0f b6 c0             	movzbl %al,%eax
   14000442a:	23 45 20             	and    0x20(%rbp),%eax
   14000442d:	85 c0                	test   %eax,%eax
   14000442f:	74 3d                	je     14000446e <int_check+0x77>
   140004431:	0f b7 55 18          	movzwl 0x18(%rbp),%edx
   140004435:	48 8b 45 10          	mov    0x10(%rbp),%rax
   140004439:	48 89 c1             	mov    %rax,%rcx
   14000443c:	e8 7f ff ff ff       	call   1400043c0 <int_handle>
   140004441:	48 8b 45 10          	mov    0x10(%rbp),%rax
   140004445:	0f b6 40 25          	movzbl 0x25(%rax),%eax
   140004449:	8b 55 20             	mov    0x20(%rbp),%edx
   14000444c:	f7 d2                	not    %edx
   14000444e:	21 c2                	and    %eax,%edx
   140004450:	48 8b 45 10          	mov    0x10(%rbp),%rax
   140004454:	88 50 25             	mov    %dl,0x25(%rax)
   140004457:	48 8b 45 10          	mov    0x10(%rbp),%rax
   14000445b:	c6 40 20 00          	movb   $0x0,0x20(%rax)
   14000445f:	48 8b 45 10          	mov    0x10(%rbp),%rax
   140004463:	c6 40 22 00          	movb   $0x0,0x22(%rax)
   140004467:	b8 01 00 00 00       	mov    $0x1,%eax
   14000446c:	eb 05                	jmp    140004473 <int_check+0x7c>
   14000446e:	b8 00 00 00 00       	mov    $0x0,%eax
   140004473:	48 83 c4 20          	add    $0x20,%rsp
   140004477:	5d                   	pop    %rbp
   140004478:	c3                   	ret

0000000140004479 <cpu_handle_interrupts>:
   140004479:	55                   	push   %rbp
   14000447a:	48 89 e5             	mov    %rsp,%rbp
   14000447d:	48 83 ec 20          	sub    $0x20,%rsp
   140004481:	48 89 4d 10          	mov    %rcx,0x10(%rbp)
   140004485:	48 8b 45 10          	mov    0x10(%rbp),%rax
   140004489:	41 b8 01 00 00 00    	mov    $0x1,%r8d
   14000448f:	ba 40 00 00 00       	mov    $0x40,%edx
   140004494:	48 89 c1             	mov    %rax,%rcx
   140004497:	e8 5b ff ff ff       	call   1400043f7 <int_check>
   14000449c:	84 c0                	test   %al,%al
   14000449e:	75 68                	jne    140004508 <cpu_handle_interrupts+0x8f>
   1400044a0:	48 8b 45 10          	mov    0x10(%rbp),%rax
   1400044a4:	41 b8 02 00 00 00    	mov    $0x2,%r8d
   1400044aa:	ba 48 00 00 00       	mov    $0x48,%edx
   1400044af:	48 89 c1             	mov    %rax,%rcx
   1400044b2:	e8 40 ff ff ff       	call   1400043f7 <int_check>
   1400044b7:	84 c0                	test   %al,%al
   1400044b9:	75 4d                	jne    140004508 <cpu_handle_interrupts+0x8f>
   1400044bb:	48 8b 45 10          	mov    0x10(%rbp),%rax
   1400044bf:	41 b8 04 00 00 00    	mov    $0x4,%r8d
   1400044c5:	ba 50 00 00 00       	mov    $0x50,%edx
   1400044ca:	48 89 c1             	mov    %rax,%rcx
   1400044cd:	e8 25 ff ff ff       	call   1400043f7 <int_check>
   1400044d2:	84 c0                	test   %al,%al
   1400044d4:	75 32                	jne    140004508 <cpu_handle_interrupts+0x8f>
   1400044d6:	48 8b 45 10          	mov    0x10(%rbp),%rax
   1400044da:	41 b8 08 00 00 00    	mov    $0x8,%r8d
   1400044e0:	ba 58 00 00 00       	mov    $0x58,%edx
   1400044e5:	48 89 c1             	mov    %rax,%rcx
   1400044e8:	e8 0a ff ff ff       	call   1400043f7 <int_check>
   1400044ed:	84 c0                	test   %al,%al
   1400044ef:	75 17                	jne    140004508 <cpu_handle_interrupts+0x8f>
   1400044f1:	48 8b 45 10          	mov    0x10(%rbp),%rax
   1400044f5:	41 b8 10 00 00 00    	mov    $0x10,%r8d
   1400044fb:	ba 60 00 00 00       	mov    $0x60,%edx
   140004500:	48 89 c1             	mov    %rax,%rcx
   140004503:	e8 ef fe ff ff       	call   1400043f7 <int_check>
   140004508:	90                   	nop
   140004509:	48 83 c4 20          	add    $0x20,%rsp
   14000450d:	5d                   	pop    %rbp
   14000450e:	c3                   	ret
   14000450f:	90                   	nop

0000000140004510 <wram_read>:
   140004510:	55                   	push   %rbp
   140004511:	48 89 e5             	mov    %rsp,%rbp
   140004514:	48 83 ec 20          	sub    $0x20,%rsp
   140004518:	89 c8                	mov    %ecx,%eax
   14000451a:	66 89 45 10          	mov    %ax,0x10(%rbp)
   14000451e:	66 81 45 10 00 40    	addw   $0x4000,0x10(%rbp)
   140004524:	66 81 7d 10 ff 1f    	cmpw   $0x1fff,0x10(%rbp)
   14000452a:	76 24                	jbe    140004550 <wram_read+0x40>
   14000452c:	0f b7 45 10          	movzwl 0x10(%rbp),%eax
   140004530:	05 00 c0 00 00       	add    $0xc000,%eax
   140004535:	89 c2                	mov    %eax,%edx
   140004537:	48 8d 05 d2 53 00 00 	lea    0x53d2(%rip),%rax        # 140009910 <.rdata>
   14000453e:	48 89 c1             	mov    %rax,%rcx
   140004541:	e8 0a 17 00 00       	call   140005c50 <printf>
   140004546:	b9 ff ff ff ff       	mov    $0xffffffff,%ecx
   14000454b:	e8 08 19 00 00       	call   140005e58 <exit>
   140004550:	0f b7 45 10          	movzwl 0x10(%rbp),%eax
   140004554:	48 98                	cltq
   140004556:	48 8d 15 43 8f 00 00 	lea    0x8f43(%rip),%rdx        # 14000d4a0 <ctx>
   14000455d:	0f b6 04 10          	movzbl (%rax,%rdx,1),%eax
   140004561:	48 83 c4 20          	add    $0x20,%rsp
   140004565:	5d                   	pop    %rbp
   140004566:	c3                   	ret

0000000140004567 <wram_write>:
   140004567:	55                   	push   %rbp
   140004568:	48 89 e5             	mov    %rsp,%rbp
   14000456b:	89 d0                	mov    %edx,%eax
   14000456d:	89 ca                	mov    %ecx,%edx
   14000456f:	66 89 55 10          	mov    %dx,0x10(%rbp)
   140004573:	88 45 18             	mov    %al,0x18(%rbp)
   140004576:	66 81 45 10 00 40    	addw   $0x4000,0x10(%rbp)
   14000457c:	0f b7 45 10          	movzwl 0x10(%rbp),%eax
   140004580:	48 98                	cltq
   140004582:	48 8d 0d 17 8f 00 00 	lea    0x8f17(%rip),%rcx        # 14000d4a0 <ctx>
   140004589:	0f b6 55 18          	movzbl 0x18(%rbp),%edx
   14000458d:	88 14 08             	mov    %dl,(%rax,%rcx,1)
   140004590:	90                   	nop
   140004591:	5d                   	pop    %rbp
   140004592:	c3                   	ret

0000000140004593 <hram_read>:
   140004593:	55                   	push   %rbp
   140004594:	48 89 e5             	mov    %rsp,%rbp
   140004597:	89 c8                	mov    %ecx,%eax
   140004599:	66 89 45 10          	mov    %ax,0x10(%rbp)
   14000459d:	66 83 6d 10 80       	subw   $0xff80,0x10(%rbp)
   1400045a2:	0f b7 45 10          	movzwl 0x10(%rbp),%eax
   1400045a6:	48 98                	cltq
   1400045a8:	48 8d 15 f1 ae 00 00 	lea    0xaef1(%rip),%rdx        # 14000f4a0 <ctx+0x2000>
   1400045af:	0f b6 04 10          	movzbl (%rax,%rdx,1),%eax
   1400045b3:	5d                   	pop    %rbp
   1400045b4:	c3                   	ret

00000001400045b5 <hram_write>:
   1400045b5:	55                   	push   %rbp
   1400045b6:	48 89 e5             	mov    %rsp,%rbp
   1400045b9:	89 d0                	mov    %edx,%eax
   1400045bb:	89 ca                	mov    %ecx,%edx
   1400045bd:	66 89 55 10          	mov    %dx,0x10(%rbp)
   1400045c1:	88 45 18             	mov    %al,0x18(%rbp)
   1400045c4:	66 83 6d 10 80       	subw   $0xff80,0x10(%rbp)
   1400045c9:	0f b7 45 10          	movzwl 0x10(%rbp),%eax
   1400045cd:	48 98                	cltq
   1400045cf:	48 8d 0d ca ae 00 00 	lea    0xaeca(%rip),%rcx        # 14000f4a0 <ctx+0x2000>
   1400045d6:	0f b6 55 18          	movzbl 0x18(%rbp),%edx
   1400045da:	88 14 08             	mov    %dl,(%rax,%rcx,1)
   1400045dd:	90                   	nop
   1400045de:	5d                   	pop    %rbp
   1400045df:	c3                   	ret

00000001400045e0 <ppu_init>:
   1400045e0:	55                   	push   %rbp
   1400045e1:	48 89 e5             	mov    %rsp,%rbp
   1400045e4:	90                   	nop
   1400045e5:	5d                   	pop    %rbp
   1400045e6:	c3                   	ret

00000001400045e7 <ppu_tick>:
   1400045e7:	55                   	push   %rbp
   1400045e8:	48 89 e5             	mov    %rsp,%rbp
   1400045eb:	90                   	nop
   1400045ec:	5d                   	pop    %rbp
   1400045ed:	c3                   	ret
   1400045ee:	90                   	nop
   1400045ef:	90                   	nop

00000001400045f0 <stack_push>:
   1400045f0:	55                   	push   %rbp
   1400045f1:	53                   	push   %rbx
   1400045f2:	48 83 ec 28          	sub    $0x28,%rsp
   1400045f6:	48 8d 6c 24 20       	lea    0x20(%rsp),%rbp
   1400045fb:	89 c8                	mov    %ecx,%eax
   1400045fd:	88 45 20             	mov    %al,0x20(%rbp)
   140004600:	e8 2e fd ff ff       	call   140004333 <cpu_get_regs>
   140004605:	0f b7 50 0a          	movzwl 0xa(%rax),%edx
   140004609:	83 ea 01             	sub    $0x1,%edx
   14000460c:	66 89 50 0a          	mov    %dx,0xa(%rax)
   140004610:	0f b6 5d 20          	movzbl 0x20(%rbp),%ebx
   140004614:	e8 1a fd ff ff       	call   140004333 <cpu_get_regs>
   140004619:	0f b7 40 0a          	movzwl 0xa(%rax),%eax
   14000461d:	0f b7 c0             	movzwl %ax,%eax
   140004620:	89 da                	mov    %ebx,%edx
   140004622:	89 c1                	mov    %eax,%ecx
   140004624:	e8 a2 02 00 00       	call   1400048cb <bus_write>
   140004629:	90                   	nop
   14000462a:	48 83 c4 28          	add    $0x28,%rsp
   14000462e:	5b                   	pop    %rbx
   14000462f:	5d                   	pop    %rbp
   140004630:	c3                   	ret

0000000140004631 <stack_push16>:
   140004631:	55                   	push   %rbp
   140004632:	48 89 e5             	mov    %rsp,%rbp
   140004635:	48 83 ec 20          	sub    $0x20,%rsp
   140004639:	89 c8                	mov    %ecx,%eax
   14000463b:	66 89 45 10          	mov    %ax,0x10(%rbp)
   14000463f:	0f b7 45 10          	movzwl 0x10(%rbp),%eax
   140004643:	66 c1 e8 08          	shr    $0x8,%ax
   140004647:	0f b6 c0             	movzbl %al,%eax
   14000464a:	89 c1                	mov    %eax,%ecx
   14000464c:	e8 9f ff ff ff       	call   1400045f0 <stack_push>
   140004651:	0f b7 45 10          	movzwl 0x10(%rbp),%eax
   140004655:	0f b6 c0             	movzbl %al,%eax
   140004658:	89 c1                	mov    %eax,%ecx
   14000465a:	e8 91 ff ff ff       	call   1400045f0 <stack_push>
   14000465f:	90                   	nop
   140004660:	48 83 c4 20          	add    $0x20,%rsp
   140004664:	5d                   	pop    %rbp
   140004665:	c3                   	ret

0000000140004666 <stack_pop>:
   140004666:	55                   	push   %rbp
   140004667:	48 89 e5             	mov    %rsp,%rbp
   14000466a:	48 83 ec 20          	sub    $0x20,%rsp
   14000466e:	e8 c0 fc ff ff       	call   140004333 <cpu_get_regs>
   140004673:	0f b7 50 0a          	movzwl 0xa(%rax),%edx
   140004677:	8d 4a 01             	lea    0x1(%rdx),%ecx
   14000467a:	66 89 48 0a          	mov    %cx,0xa(%rax)
   14000467e:	0f b7 c2             	movzwl %dx,%eax
   140004681:	89 c1                	mov    %eax,%ecx
   140004683:	e8 18 01 00 00       	call   1400047a0 <bus_read>
   140004688:	48 83 c4 20          	add    $0x20,%rsp
   14000468c:	5d                   	pop    %rbp
   14000468d:	c3                   	ret

000000014000468e <stack_pop16>:
   14000468e:	55                   	push   %rbp
   14000468f:	48 89 e5             	mov    %rsp,%rbp
   140004692:	48 83 ec 30          	sub    $0x30,%rsp
   140004696:	e8 cb ff ff ff       	call   140004666 <stack_pop>
   14000469b:	0f b6 c0             	movzbl %al,%eax
   14000469e:	66 89 45 fe          	mov    %ax,-0x2(%rbp)
   1400046a2:	e8 bf ff ff ff       	call   140004666 <stack_pop>
   1400046a7:	0f b6 c0             	movzbl %al,%eax
   1400046aa:	66 89 45 fc          	mov    %ax,-0x4(%rbp)
   1400046ae:	0f b7 45 fc          	movzwl -0x4(%rbp),%eax
   1400046b2:	c1 e0 08             	shl    $0x8,%eax
   1400046b5:	89 c2                	mov    %eax,%edx
   1400046b7:	0f b7 45 fe          	movzwl -0x2(%rbp),%eax
   1400046bb:	09 d0                	or     %edx,%eax
   1400046bd:	48 83 c4 30          	add    $0x30,%rsp
   1400046c1:	5d                   	pop    %rbp
   1400046c2:	c3                   	ret
   1400046c3:	90                   	nop
   1400046c4:	90                   	nop
   1400046c5:	90                   	nop
   1400046c6:	90                   	nop
   1400046c7:	90                   	nop
   1400046c8:	90                   	nop
   1400046c9:	90                   	nop
   1400046ca:	90                   	nop
   1400046cb:	90                   	nop
   1400046cc:	90                   	nop
   1400046cd:	90                   	nop
   1400046ce:	90                   	nop
   1400046cf:	90                   	nop

00000001400046d0 <timer_init>:
   1400046d0:	55                   	push   %rbp
   1400046d1:	48 89 e5             	mov    %rsp,%rbp
   1400046d4:	90                   	nop
   1400046d5:	5d                   	pop    %rbp
   1400046d6:	c3                   	ret

00000001400046d7 <timer_tick>:
   1400046d7:	55                   	push   %rbp
   1400046d8:	48 89 e5             	mov    %rsp,%rbp
   1400046db:	90                   	nop
   1400046dc:	5d                   	pop    %rbp
   1400046dd:	c3                   	ret
   1400046de:	90                   	nop
   1400046df:	90                   	nop

00000001400046e0 <ui_init>:
   1400046e0:	55                   	push   %rbp
   1400046e1:	48 89 e5             	mov    %rsp,%rbp
   1400046e4:	48 83 ec 30          	sub    $0x30,%rsp
   1400046e8:	b9 20 00 00 00       	mov    $0x20,%ecx
   1400046ed:	e8 46 18 00 00       	call   140005f38 <SDL_Init>
   1400046f2:	48 8d 05 3f 52 00 00 	lea    0x523f(%rip),%rax        # 140009938 <SCREEN_HEIGHT+0x4>
   1400046f9:	48 89 c1             	mov    %rax,%rcx
   1400046fc:	e8 e7 16 00 00       	call   140005de8 <puts>
   140004701:	e8 1a 18 00 00       	call   140005f20 <TTF_Init>
   140004706:	48 8d 05 34 52 00 00 	lea    0x5234(%rip),%rax        # 140009941 <SCREEN_HEIGHT+0xd>
   14000470d:	48 89 c1             	mov    %rax,%rcx
   140004710:	e8 d3 16 00 00       	call   140005de8 <puts>
   140004715:	ba 00 03 00 00       	mov    $0x300,%edx
   14000471a:	b9 00 04 00 00       	mov    $0x400,%ecx
   14000471f:	48 8d 05 02 ae 00 00 	lea    0xae02(%rip),%rax        # 14000f528 <sdlRenderer>
   140004726:	48 89 44 24 20       	mov    %rax,0x20(%rsp)
   14000472b:	4c 8d 0d ee ad 00 00 	lea    0xadee(%rip),%r9        # 14000f520 <sdlWindow>
   140004732:	41 b8 00 00 00 00    	mov    $0x0,%r8d
   140004738:	e8 eb 17 00 00       	call   140005f28 <SDL_CreateWindowAndRenderer>
   14000473d:	90                   	nop
   14000473e:	48 83 c4 30          	add    $0x30,%rsp
   140004742:	5d                   	pop    %rbp
   140004743:	c3                   	ret

0000000140004744 <delay>:
   140004744:	55                   	push   %rbp
   140004745:	48 89 e5             	mov    %rsp,%rbp
   140004748:	48 83 ec 20          	sub    $0x20,%rsp
   14000474c:	89 4d 10             	mov    %ecx,0x10(%rbp)
   14000474f:	8b 45 10             	mov    0x10(%rbp),%eax
   140004752:	89 c1                	mov    %eax,%ecx
   140004754:	e8 d7 17 00 00       	call   140005f30 <SDL_Delay>
   140004759:	90                   	nop
   14000475a:	48 83 c4 20          	add    $0x20,%rsp
   14000475e:	5d                   	pop    %rbp
   14000475f:	c3                   	ret

0000000140004760 <ui_handle_events>:
   140004760:	55                   	push   %rbp
   140004761:	48 89 e5             	mov    %rsp,%rbp
   140004764:	48 83 ec 60          	sub    $0x60,%rsp
   140004768:	eb 1b                	jmp    140004785 <ui_handle_events+0x25>
   14000476a:	8b 45 c0             	mov    -0x40(%rbp),%eax
   14000476d:	3d 00 02 00 00       	cmp    $0x200,%eax
   140004772:	75 11                	jne    140004785 <ui_handle_events+0x25>
   140004774:	0f b6 45 cc          	movzbl -0x34(%rbp),%eax
   140004778:	3c 0e                	cmp    $0xe,%al
   14000477a:	75 09                	jne    140004785 <ui_handle_events+0x25>
   14000477c:	e8 df cc ff ff       	call   140001460 <emu_get_context>
   140004781:	c6 40 02 01          	movb   $0x1,0x2(%rax)
   140004785:	48 8d 45 c0          	lea    -0x40(%rbp),%rax
   140004789:	48 89 c1             	mov    %rax,%rcx
   14000478c:	e8 af 17 00 00       	call   140005f40 <SDL_PollEvent>
   140004791:	85 c0                	test   %eax,%eax
   140004793:	7f d5                	jg     14000476a <ui_handle_events+0xa>
   140004795:	90                   	nop
   140004796:	90                   	nop
   140004797:	48 83 c4 60          	add    $0x60,%rsp
   14000479b:	5d                   	pop    %rbp
   14000479c:	c3                   	ret
   14000479d:	90                   	nop
   14000479e:	90                   	nop
   14000479f:	90                   	nop

00000001400047a0 <bus_read>:
   1400047a0:	55                   	push   %rbp
   1400047a1:	48 89 e5             	mov    %rsp,%rbp
   1400047a4:	48 83 ec 20          	sub    $0x20,%rsp
   1400047a8:	89 c8                	mov    %ecx,%eax
   1400047aa:	66 89 45 10          	mov    %ax,0x10(%rbp)
   1400047ae:	0f b7 45 10          	movzwl 0x10(%rbp),%eax
   1400047b2:	66 85 c0             	test   %ax,%ax
   1400047b5:	78 10                	js     1400047c7 <bus_read+0x27>
   1400047b7:	0f b7 45 10          	movzwl 0x10(%rbp),%eax
   1400047bb:	89 c1                	mov    %eax,%ecx
   1400047bd:	e8 65 d1 ff ff       	call   140001927 <cart_read>
   1400047c2:	e9 fe 00 00 00       	jmp    1400048c5 <bus_read+0x125>
   1400047c7:	66 81 7d 10 ff 9f    	cmpw   $0x9fff,0x10(%rbp)
   1400047cd:	77 4a                	ja     140004819 <bus_read+0x79>
   1400047cf:	0f b7 45 10          	movzwl 0x10(%rbp),%eax
   1400047d3:	89 c2                	mov    %eax,%edx
   1400047d5:	48 8d 05 74 51 00 00 	lea    0x5174(%rip),%rax        # 140009950 <.rdata>
   1400047dc:	48 89 c1             	mov    %rax,%rcx
   1400047df:	e8 6c 14 00 00       	call   140005c50 <printf>
   1400047e4:	b9 02 00 00 00       	mov    $0x2,%ecx
   1400047e9:	48 8b 05 20 bc 00 00 	mov    0xbc20(%rip),%rax        # 140010410 <__imp___acrt_iob_func>
   1400047f0:	ff d0                	call   *%rax
   1400047f2:	49 89 c1             	mov    %rax,%r9
   1400047f5:	41 b8 14 00 00 00    	mov    $0x14,%r8d
   1400047fb:	ba 01 00 00 00       	mov    $0x1,%edx
   140004800:	48 8d 05 65 51 00 00 	lea    0x5165(%rip),%rax        # 14000996c <.rdata+0x1c>
   140004807:	48 89 c1             	mov    %rax,%rcx
   14000480a:	e8 d1 15 00 00       	call   140005de0 <fwrite>
   14000480f:	b9 fb ff ff ff       	mov    $0xfffffffb,%ecx
   140004814:	e8 3f 16 00 00       	call   140005e58 <exit>
   140004819:	66 81 7d 10 ff bf    	cmpw   $0xbfff,0x10(%rbp)
   14000481f:	77 10                	ja     140004831 <bus_read+0x91>
   140004821:	0f b7 45 10          	movzwl 0x10(%rbp),%eax
   140004825:	89 c1                	mov    %eax,%ecx
   140004827:	e8 fb d0 ff ff       	call   140001927 <cart_read>
   14000482c:	e9 94 00 00 00       	jmp    1400048c5 <bus_read+0x125>
   140004831:	66 81 7d 10 ff df    	cmpw   $0xdfff,0x10(%rbp)
   140004837:	77 0d                	ja     140004846 <bus_read+0xa6>
   140004839:	0f b7 45 10          	movzwl 0x10(%rbp),%eax
   14000483d:	89 c1                	mov    %eax,%ecx
   14000483f:	e8 cc fc ff ff       	call   140004510 <wram_read>
   140004844:	eb 7f                	jmp    1400048c5 <bus_read+0x125>
   140004846:	66 81 7d 10 ff fd    	cmpw   $0xfdff,0x10(%rbp)
   14000484c:	77 07                	ja     140004855 <bus_read+0xb5>
   14000484e:	b8 00 00 00 00       	mov    $0x0,%eax
   140004853:	eb 70                	jmp    1400048c5 <bus_read+0x125>
   140004855:	66 81 7d 10 9f fe    	cmpw   $0xfe9f,0x10(%rbp)
   14000485b:	77 1c                	ja     140004879 <bus_read+0xd9>
   14000485d:	0f b7 45 10          	movzwl 0x10(%rbp),%eax
   140004861:	89 c2                	mov    %eax,%edx
   140004863:	48 8d 05 e6 50 00 00 	lea    0x50e6(%rip),%rax        # 140009950 <.rdata>
   14000486a:	48 89 c1             	mov    %rax,%rcx
   14000486d:	e8 de 13 00 00       	call   140005c50 <printf>
   140004872:	b8 00 00 00 00       	mov    $0x0,%eax
   140004877:	eb 4c                	jmp    1400048c5 <bus_read+0x125>
   140004879:	66 81 7d 10 ff fe    	cmpw   $0xfeff,0x10(%rbp)
   14000487f:	77 07                	ja     140004888 <bus_read+0xe8>
   140004881:	b8 00 00 00 00       	mov    $0x0,%eax
   140004886:	eb 3d                	jmp    1400048c5 <bus_read+0x125>
   140004888:	66 81 7d 10 7f ff    	cmpw   $0xff7f,0x10(%rbp)
   14000488e:	77 1c                	ja     1400048ac <bus_read+0x10c>
   140004890:	0f b7 45 10          	movzwl 0x10(%rbp),%eax
   140004894:	89 c2                	mov    %eax,%edx
   140004896:	48 8d 05 b3 50 00 00 	lea    0x50b3(%rip),%rax        # 140009950 <.rdata>
   14000489d:	48 89 c1             	mov    %rax,%rcx
   1400048a0:	e8 ab 13 00 00       	call   140005c50 <printf>
   1400048a5:	b8 00 00 00 00       	mov    $0x0,%eax
   1400048aa:	eb 19                	jmp    1400048c5 <bus_read+0x125>
   1400048ac:	66 83 7d 10 ff       	cmpw   $0xffff,0x10(%rbp)
   1400048b1:	75 07                	jne    1400048ba <bus_read+0x11a>
   1400048b3:	e8 42 d4 ff ff       	call   140001cfa <cpu_get_ie_register>
   1400048b8:	eb 0b                	jmp    1400048c5 <bus_read+0x125>
   1400048ba:	0f b7 45 10          	movzwl 0x10(%rbp),%eax
   1400048be:	89 c1                	mov    %eax,%ecx
   1400048c0:	e8 ce fc ff ff       	call   140004593 <hram_read>
   1400048c5:	48 83 c4 20          	add    $0x20,%rsp
   1400048c9:	5d                   	pop    %rbp
   1400048ca:	c3                   	ret

00000001400048cb <bus_write>:
   1400048cb:	55                   	push   %rbp
   1400048cc:	48 89 e5             	mov    %rsp,%rbp
   1400048cf:	48 83 ec 20          	sub    $0x20,%rsp
   1400048d3:	89 d0                	mov    %edx,%eax
   1400048d5:	89 ca                	mov    %ecx,%edx
   1400048d7:	66 89 55 10          	mov    %dx,0x10(%rbp)
   1400048db:	88 45 18             	mov    %al,0x18(%rbp)
   1400048de:	0f b7 45 10          	movzwl 0x10(%rbp),%eax
   1400048e2:	66 85 c0             	test   %ax,%ax
   1400048e5:	78 14                	js     1400048fb <bus_write+0x30>
   1400048e7:	0f b6 55 18          	movzbl 0x18(%rbp),%edx
   1400048eb:	0f b7 45 10          	movzwl 0x10(%rbp),%eax
   1400048ef:	89 c1                	mov    %eax,%ecx
   1400048f1:	e8 4e d0 ff ff       	call   140001944 <cart_write>
   1400048f6:	e9 c8 00 00 00       	jmp    1400049c3 <bus_write+0xf8>
   1400048fb:	66 81 7d 10 ff 9f    	cmpw   $0x9fff,0x10(%rbp)
   140004901:	77 1a                	ja     14000491d <bus_write+0x52>
   140004903:	0f b7 45 10          	movzwl 0x10(%rbp),%eax
   140004907:	89 c2                	mov    %eax,%edx
   140004909:	48 8d 05 71 50 00 00 	lea    0x5071(%rip),%rax        # 140009981 <.rdata+0x31>
   140004910:	48 89 c1             	mov    %rax,%rcx
   140004913:	e8 38 13 00 00       	call   140005c50 <printf>
   140004918:	e9 a6 00 00 00       	jmp    1400049c3 <bus_write+0xf8>
   14000491d:	66 81 7d 10 ff bf    	cmpw   $0xbfff,0x10(%rbp)
   140004923:	77 14                	ja     140004939 <bus_write+0x6e>
   140004925:	0f b6 55 18          	movzbl 0x18(%rbp),%edx
   140004929:	0f b7 45 10          	movzwl 0x10(%rbp),%eax
   14000492d:	89 c1                	mov    %eax,%ecx
   14000492f:	e8 10 d0 ff ff       	call   140001944 <cart_write>
   140004934:	e9 8a 00 00 00       	jmp    1400049c3 <bus_write+0xf8>
   140004939:	66 81 7d 10 ff df    	cmpw   $0xdfff,0x10(%rbp)
   14000493f:	77 11                	ja     140004952 <bus_write+0x87>
   140004941:	0f b6 55 18          	movzbl 0x18(%rbp),%edx
   140004945:	0f b7 45 10          	movzwl 0x10(%rbp),%eax
   140004949:	89 c1                	mov    %eax,%ecx
   14000494b:	e8 17 fc ff ff       	call   140004567 <wram_write>
   140004950:	eb 71                	jmp    1400049c3 <bus_write+0xf8>
   140004952:	66 81 7d 10 ff fd    	cmpw   $0xfdff,0x10(%rbp)
   140004958:	76 69                	jbe    1400049c3 <bus_write+0xf8>
   14000495a:	66 81 7d 10 9f fe    	cmpw   $0xfe9f,0x10(%rbp)
   140004960:	77 17                	ja     140004979 <bus_write+0xae>
   140004962:	0f b7 45 10          	movzwl 0x10(%rbp),%eax
   140004966:	89 c2                	mov    %eax,%edx
   140004968:	48 8d 05 12 50 00 00 	lea    0x5012(%rip),%rax        # 140009981 <.rdata+0x31>
   14000496f:	48 89 c1             	mov    %rax,%rcx
   140004972:	e8 d9 12 00 00       	call   140005c50 <printf>
   140004977:	eb 4a                	jmp    1400049c3 <bus_write+0xf8>
   140004979:	66 81 7d 10 ff fe    	cmpw   $0xfeff,0x10(%rbp)
   14000497f:	76 42                	jbe    1400049c3 <bus_write+0xf8>
   140004981:	66 81 7d 10 7f ff    	cmpw   $0xff7f,0x10(%rbp)
   140004987:	77 17                	ja     1400049a0 <bus_write+0xd5>
   140004989:	0f b7 45 10          	movzwl 0x10(%rbp),%eax
   14000498d:	89 c2                	mov    %eax,%edx
   14000498f:	48 8d 05 eb 4f 00 00 	lea    0x4feb(%rip),%rax        # 140009981 <.rdata+0x31>
   140004996:	48 89 c1             	mov    %rax,%rcx
   140004999:	e8 b2 12 00 00       	call   140005c50 <printf>
   14000499e:	eb 23                	jmp    1400049c3 <bus_write+0xf8>
   1400049a0:	66 83 7d 10 ff       	cmpw   $0xffff,0x10(%rbp)
   1400049a5:	75 0d                	jne    1400049b4 <bus_write+0xe9>
   1400049a7:	0f b6 45 18          	movzbl 0x18(%rbp),%eax
   1400049ab:	89 c1                	mov    %eax,%ecx
   1400049ad:	e8 55 d3 ff ff       	call   140001d07 <cpu_set_ie_register>
   1400049b2:	eb 0f                	jmp    1400049c3 <bus_write+0xf8>
   1400049b4:	0f b6 55 18          	movzbl 0x18(%rbp),%edx
   1400049b8:	0f b7 45 10          	movzwl 0x10(%rbp),%eax
   1400049bc:	89 c1                	mov    %eax,%ecx
   1400049be:	e8 f2 fb ff ff       	call   1400045b5 <hram_write>
   1400049c3:	90                   	nop
   1400049c4:	48 83 c4 20          	add    $0x20,%rsp
   1400049c8:	5d                   	pop    %rbp
   1400049c9:	c3                   	ret

00000001400049ca <bus_read16>:
   1400049ca:	55                   	push   %rbp
   1400049cb:	48 89 e5             	mov    %rsp,%rbp
   1400049ce:	48 83 ec 30          	sub    $0x30,%rsp
   1400049d2:	89 c8                	mov    %ecx,%eax
   1400049d4:	66 89 45 10          	mov    %ax,0x10(%rbp)
   1400049d8:	0f b7 45 10          	movzwl 0x10(%rbp),%eax
   1400049dc:	89 c1                	mov    %eax,%ecx
   1400049de:	e8 bd fd ff ff       	call   1400047a0 <bus_read>
   1400049e3:	0f b6 c0             	movzbl %al,%eax
   1400049e6:	66 89 45 fe          	mov    %ax,-0x2(%rbp)
   1400049ea:	0f b7 45 10          	movzwl 0x10(%rbp),%eax
   1400049ee:	83 c0 01             	add    $0x1,%eax
   1400049f1:	0f b7 c0             	movzwl %ax,%eax
   1400049f4:	89 c1                	mov    %eax,%ecx
   1400049f6:	e8 a5 fd ff ff       	call   1400047a0 <bus_read>
   1400049fb:	0f b6 c0             	movzbl %al,%eax
   1400049fe:	66 89 45 fc          	mov    %ax,-0x4(%rbp)
   140004a02:	0f b7 45 fc          	movzwl -0x4(%rbp),%eax
   140004a06:	c1 e0 08             	shl    $0x8,%eax
   140004a09:	89 c2                	mov    %eax,%edx
   140004a0b:	0f b7 45 fe          	movzwl -0x2(%rbp),%eax
   140004a0f:	09 d0                	or     %edx,%eax
   140004a11:	48 83 c4 30          	add    $0x30,%rsp
   140004a15:	5d                   	pop    %rbp
   140004a16:	c3                   	ret

0000000140004a17 <bus_write16>:
   140004a17:	55                   	push   %rbp
   140004a18:	48 89 e5             	mov    %rsp,%rbp
   140004a1b:	48 83 ec 20          	sub    $0x20,%rsp
   140004a1f:	89 d0                	mov    %edx,%eax
   140004a21:	89 ca                	mov    %ecx,%edx
   140004a23:	66 89 55 10          	mov    %dx,0x10(%rbp)
   140004a27:	66 89 45 18          	mov    %ax,0x18(%rbp)
   140004a2b:	0f b7 45 18          	movzwl 0x18(%rbp),%eax
   140004a2f:	66 c1 e8 08          	shr    $0x8,%ax
   140004a33:	0f b6 d0             	movzbl %al,%edx
   140004a36:	0f b7 45 10          	movzwl 0x10(%rbp),%eax
   140004a3a:	83 c0 01             	add    $0x1,%eax
   140004a3d:	0f b7 c0             	movzwl %ax,%eax
   140004a40:	89 c1                	mov    %eax,%ecx
   140004a42:	e8 84 fe ff ff       	call   1400048cb <bus_write>
   140004a47:	0f b7 45 18          	movzwl 0x18(%rbp),%eax
   140004a4b:	0f b6 d0             	movzbl %al,%edx
   140004a4e:	0f b7 45 10          	movzwl 0x10(%rbp),%eax
   140004a52:	89 c1                	mov    %eax,%ecx
   140004a54:	e8 72 fe ff ff       	call   1400048cb <bus_write>
   140004a59:	90                   	nop
   140004a5a:	48 83 c4 20          	add    $0x20,%rsp
   140004a5e:	5d                   	pop    %rbp
   140004a5f:	c3                   	ret

0000000140004a60 <__do_global_dtors>:
   140004a60:	48 83 ec 28          	sub    $0x28,%rsp
   140004a64:	48 8b 05 b5 36 00 00 	mov    0x36b5(%rip),%rax        # 140008120 <p.0>
   140004a6b:	48 8b 00             	mov    (%rax),%rax
   140004a6e:	48 85 c0             	test   %rax,%rax
   140004a71:	74 2a                	je     140004a9d <__do_global_dtors+0x3d>
   140004a73:	66 66 2e 0f 1f 84 00 	data16 cs nopw 0x0(%rax,%rax,1)
   140004a7a:	00 00 00 00 
   140004a7e:	66 90                	xchg   %ax,%ax
   140004a80:	ff d0                	call   *%rax
   140004a82:	48 8b 05 97 36 00 00 	mov    0x3697(%rip),%rax        # 140008120 <p.0>
   140004a89:	48 8d 50 08          	lea    0x8(%rax),%rdx
   140004a8d:	48 8b 40 08          	mov    0x8(%rax),%rax
   140004a91:	48 89 15 88 36 00 00 	mov    %rdx,0x3688(%rip)        # 140008120 <p.0>
   140004a98:	48 85 c0             	test   %rax,%rax
   140004a9b:	75 e3                	jne    140004a80 <__do_global_dtors+0x20>
   140004a9d:	48 83 c4 28          	add    $0x28,%rsp
   140004aa1:	c3                   	ret
   140004aa2:	66 66 2e 0f 1f 84 00 	data16 cs nopw 0x0(%rax,%rax,1)
   140004aa9:	00 00 00 00 
   140004aad:	0f 1f 00             	nopl   (%rax)

0000000140004ab0 <__do_global_ctors>:
   140004ab0:	56                   	push   %rsi
   140004ab1:	53                   	push   %rbx
   140004ab2:	48 83 ec 28          	sub    $0x28,%rsp
   140004ab6:	48 8b 15 53 52 00 00 	mov    0x5253(%rip),%rdx        # 140009d10 <.refptr.__CTOR_LIST__>
   140004abd:	48 8b 02             	mov    (%rdx),%rax
   140004ac0:	89 c1                	mov    %eax,%ecx
   140004ac2:	83 f8 ff             	cmp    $0xffffffff,%eax
   140004ac5:	74 39                	je     140004b00 <__do_global_ctors+0x50>
   140004ac7:	85 c9                	test   %ecx,%ecx
   140004ac9:	74 20                	je     140004aeb <__do_global_ctors+0x3b>
   140004acb:	89 c8                	mov    %ecx,%eax
   140004acd:	83 e9 01             	sub    $0x1,%ecx
   140004ad0:	48 8d 1c c2          	lea    (%rdx,%rax,8),%rbx
   140004ad4:	48 29 c8             	sub    %rcx,%rax
   140004ad7:	48 8d 74 c2 f8       	lea    -0x8(%rdx,%rax,8),%rsi
   140004adc:	0f 1f 40 00          	nopl   0x0(%rax)
   140004ae0:	ff 13                	call   *(%rbx)
   140004ae2:	48 83 eb 08          	sub    $0x8,%rbx
   140004ae6:	48 39 f3             	cmp    %rsi,%rbx
   140004ae9:	75 f5                	jne    140004ae0 <__do_global_ctors+0x30>
   140004aeb:	48 8d 0d 6e ff ff ff 	lea    -0x92(%rip),%rcx        # 140004a60 <__do_global_dtors>
   140004af2:	48 83 c4 28          	add    $0x28,%rsp
   140004af6:	5b                   	pop    %rbx
   140004af7:	5e                   	pop    %rsi
   140004af8:	e9 03 c9 ff ff       	jmp    140001400 <atexit>
   140004afd:	0f 1f 00             	nopl   (%rax)
   140004b00:	31 c0                	xor    %eax,%eax
   140004b02:	66 66 2e 0f 1f 84 00 	data16 cs nopw 0x0(%rax,%rax,1)
   140004b09:	00 00 00 00 
   140004b0d:	0f 1f 00             	nopl   (%rax)
   140004b10:	44 8d 40 01          	lea    0x1(%rax),%r8d
   140004b14:	89 c1                	mov    %eax,%ecx
   140004b16:	4a 83 3c c2 00       	cmpq   $0x0,(%rdx,%r8,8)
   140004b1b:	4c 89 c0             	mov    %r8,%rax
   140004b1e:	75 f0                	jne    140004b10 <__do_global_ctors+0x60>
   140004b20:	eb a5                	jmp    140004ac7 <__do_global_ctors+0x17>
   140004b22:	66 66 2e 0f 1f 84 00 	data16 cs nopw 0x0(%rax,%rax,1)
   140004b29:	00 00 00 00 
   140004b2d:	0f 1f 00             	nopl   (%rax)

0000000140004b30 <__main>:
   140004b30:	8b 05 0a aa 00 00    	mov    0xaa0a(%rip),%eax        # 14000f540 <initialized>
   140004b36:	85 c0                	test   %eax,%eax
   140004b38:	74 06                	je     140004b40 <__main+0x10>
   140004b3a:	c3                   	ret
   140004b3b:	0f 1f 44 00 00       	nopl   0x0(%rax,%rax,1)
   140004b40:	c7 05 f6 a9 00 00 01 	movl   $0x1,0xa9f6(%rip)        # 14000f540 <initialized>
   140004b47:	00 00 00 
   140004b4a:	e9 61 ff ff ff       	jmp    140004ab0 <__do_global_ctors>
   140004b4f:	90                   	nop

0000000140004b50 <_setargv>:
   140004b50:	31 c0                	xor    %eax,%eax
   140004b52:	c3                   	ret
   140004b53:	90                   	nop
   140004b54:	90                   	nop
   140004b55:	90                   	nop
   140004b56:	90                   	nop
   140004b57:	90                   	nop
   140004b58:	90                   	nop
   140004b59:	90                   	nop
   140004b5a:	90                   	nop
   140004b5b:	90                   	nop
   140004b5c:	90                   	nop
   140004b5d:	90                   	nop
   140004b5e:	90                   	nop
   140004b5f:	90                   	nop

0000000140004b60 <__dyn_tls_dtor>:
   140004b60:	83 fa 03             	cmp    $0x3,%edx
   140004b63:	74 0b                	je     140004b70 <__dyn_tls_dtor+0x10>
   140004b65:	85 d2                	test   %edx,%edx
   140004b67:	74 07                	je     140004b70 <__dyn_tls_dtor+0x10>
   140004b69:	c3                   	ret
   140004b6a:	66 0f 1f 44 00 00    	nopw   0x0(%rax,%rax,1)
   140004b70:	e9 9b 0a 00 00       	jmp    140005610 <__mingw_TLScallback>
   140004b75:	66 66 2e 0f 1f 84 00 	data16 cs nopw 0x0(%rax,%rax,1)
   140004b7c:	00 00 00 00 

0000000140004b80 <__dyn_tls_init>:
   140004b80:	56                   	push   %rsi
   140004b81:	53                   	push   %rbx
   140004b82:	48 83 ec 28          	sub    $0x28,%rsp
   140004b86:	48 8b 05 63 51 00 00 	mov    0x5163(%rip),%rax        # 140009cf0 <.refptr._CRT_MT>
   140004b8d:	83 38 02             	cmpl   $0x2,(%rax)
   140004b90:	74 06                	je     140004b98 <__dyn_tls_init+0x18>
   140004b92:	c7 00 02 00 00 00    	movl   $0x2,(%rax)
   140004b98:	83 fa 02             	cmp    $0x2,%edx
   140004b9b:	74 13                	je     140004bb0 <__dyn_tls_init+0x30>
   140004b9d:	83 fa 01             	cmp    $0x1,%edx
   140004ba0:	74 4e                	je     140004bf0 <__dyn_tls_init+0x70>
   140004ba2:	48 83 c4 28          	add    $0x28,%rsp
   140004ba6:	5b                   	pop    %rbx
   140004ba7:	5e                   	pop    %rsi
   140004ba8:	c3                   	ret
   140004ba9:	0f 1f 80 00 00 00 00 	nopl   0x0(%rax)
   140004bb0:	48 8d 1d a1 c4 00 00 	lea    0xc4a1(%rip),%rbx        # 140011058 <__xd_z>
   140004bb7:	48 8d 35 9a c4 00 00 	lea    0xc49a(%rip),%rsi        # 140011058 <__xd_z>
   140004bbe:	48 39 f3             	cmp    %rsi,%rbx
   140004bc1:	74 df                	je     140004ba2 <__dyn_tls_init+0x22>
   140004bc3:	66 66 2e 0f 1f 84 00 	data16 cs nopw 0x0(%rax,%rax,1)
   140004bca:	00 00 00 00 
   140004bce:	66 90                	xchg   %ax,%ax
   140004bd0:	48 8b 03             	mov    (%rbx),%rax
   140004bd3:	48 85 c0             	test   %rax,%rax
   140004bd6:	74 02                	je     140004bda <__dyn_tls_init+0x5a>
   140004bd8:	ff d0                	call   *%rax
   140004bda:	48 83 c3 08          	add    $0x8,%rbx
   140004bde:	48 39 f3             	cmp    %rsi,%rbx
   140004be1:	75 ed                	jne    140004bd0 <__dyn_tls_init+0x50>
   140004be3:	48 83 c4 28          	add    $0x28,%rsp
   140004be7:	5b                   	pop    %rbx
   140004be8:	5e                   	pop    %rsi
   140004be9:	c3                   	ret
   140004bea:	66 0f 1f 44 00 00    	nopw   0x0(%rax,%rax,1)
   140004bf0:	48 83 c4 28          	add    $0x28,%rsp
   140004bf4:	5b                   	pop    %rbx
   140004bf5:	5e                   	pop    %rsi
   140004bf6:	e9 15 0a 00 00       	jmp    140005610 <__mingw_TLScallback>
   140004bfb:	0f 1f 44 00 00       	nopl   0x0(%rax,%rax,1)

0000000140004c00 <__tlregdtor>:
   140004c00:	31 c0                	xor    %eax,%eax
   140004c02:	c3                   	ret
   140004c03:	90                   	nop
   140004c04:	90                   	nop
   140004c05:	90                   	nop
   140004c06:	90                   	nop
   140004c07:	90                   	nop
   140004c08:	90                   	nop
   140004c09:	90                   	nop
   140004c0a:	90                   	nop
   140004c0b:	90                   	nop
   140004c0c:	90                   	nop
   140004c0d:	90                   	nop
   140004c0e:	90                   	nop
   140004c0f:	90                   	nop

0000000140004c10 <_matherr>:
   140004c10:	56                   	push   %rsi
   140004c11:	53                   	push   %rbx
   140004c12:	48 83 ec 78          	sub    $0x78,%rsp
   140004c16:	0f 11 74 24 40       	movups %xmm6,0x40(%rsp)
   140004c1b:	0f 11 7c 24 50       	movups %xmm7,0x50(%rsp)
   140004c20:	44 0f 11 44 24 60    	movups %xmm8,0x60(%rsp)
   140004c26:	83 39 06             	cmpl   $0x6,(%rcx)
   140004c29:	0f 87 cd 00 00 00    	ja     140004cfc <_matherr+0xec>
   140004c2f:	8b 01                	mov    (%rcx),%eax
   140004c31:	48 8d 15 ec 4e 00 00 	lea    0x4eec(%rip),%rdx        # 140009b24 <.rdata+0x124>
   140004c38:	48 63 04 82          	movslq (%rdx,%rax,4),%rax
   140004c3c:	48 01 d0             	add    %rdx,%rax
   140004c3f:	ff e0                	jmp    *%rax
   140004c41:	0f 1f 80 00 00 00 00 	nopl   0x0(%rax)
   140004c48:	48 8d 1d d0 4d 00 00 	lea    0x4dd0(%rip),%rbx        # 140009a1f <.rdata+0x1f>
   140004c4f:	f2 44 0f 10 41 20    	movsd  0x20(%rcx),%xmm8
   140004c55:	f2 0f 10 79 18       	movsd  0x18(%rcx),%xmm7
   140004c5a:	f2 0f 10 71 10       	movsd  0x10(%rcx),%xmm6
   140004c5f:	48 8b 71 08          	mov    0x8(%rcx),%rsi
   140004c63:	b9 02 00 00 00       	mov    $0x2,%ecx
   140004c68:	e8 23 11 00 00       	call   140005d90 <__acrt_iob_func>
   140004c6d:	f2 44 0f 11 44 24 30 	movsd  %xmm8,0x30(%rsp)
   140004c74:	49 89 d8             	mov    %rbx,%r8
   140004c77:	48 8d 15 7a 4e 00 00 	lea    0x4e7a(%rip),%rdx        # 140009af8 <.rdata+0xf8>
   140004c7e:	f2 0f 11 7c 24 28    	movsd  %xmm7,0x28(%rsp)
   140004c84:	48 89 c1             	mov    %rax,%rcx
   140004c87:	49 89 f1             	mov    %rsi,%r9
   140004c8a:	f2 0f 11 74 24 20    	movsd  %xmm6,0x20(%rsp)
   140004c90:	e8 0b 10 00 00       	call   140005ca0 <fprintf>
   140004c95:	90                   	nop
   140004c96:	0f 10 74 24 40       	movups 0x40(%rsp),%xmm6
   140004c9b:	0f 10 7c 24 50       	movups 0x50(%rsp),%xmm7
   140004ca0:	31 c0                	xor    %eax,%eax
   140004ca2:	44 0f 10 44 24 60    	movups 0x60(%rsp),%xmm8
   140004ca8:	48 83 c4 78          	add    $0x78,%rsp
   140004cac:	5b                   	pop    %rbx
   140004cad:	5e                   	pop    %rsi
   140004cae:	c3                   	ret
   140004caf:	90                   	nop
   140004cb0:	48 8d 1d 49 4d 00 00 	lea    0x4d49(%rip),%rbx        # 140009a00 <.rdata>
   140004cb7:	eb 96                	jmp    140004c4f <_matherr+0x3f>
   140004cb9:	0f 1f 80 00 00 00 00 	nopl   0x0(%rax)
   140004cc0:	48 8d 1d 99 4d 00 00 	lea    0x4d99(%rip),%rbx        # 140009a60 <.rdata+0x60>
   140004cc7:	eb 86                	jmp    140004c4f <_matherr+0x3f>
   140004cc9:	0f 1f 80 00 00 00 00 	nopl   0x0(%rax)
   140004cd0:	48 8d 1d 69 4d 00 00 	lea    0x4d69(%rip),%rbx        # 140009a40 <.rdata+0x40>
   140004cd7:	e9 73 ff ff ff       	jmp    140004c4f <_matherr+0x3f>
   140004cdc:	0f 1f 40 00          	nopl   0x0(%rax)
   140004ce0:	48 8d 1d c9 4d 00 00 	lea    0x4dc9(%rip),%rbx        # 140009ab0 <.rdata+0xb0>
   140004ce7:	e9 63 ff ff ff       	jmp    140004c4f <_matherr+0x3f>
   140004cec:	0f 1f 40 00          	nopl   0x0(%rax)
   140004cf0:	48 8d 1d 91 4d 00 00 	lea    0x4d91(%rip),%rbx        # 140009a88 <.rdata+0x88>
   140004cf7:	e9 53 ff ff ff       	jmp    140004c4f <_matherr+0x3f>
   140004cfc:	48 8d 1d e3 4d 00 00 	lea    0x4de3(%rip),%rbx        # 140009ae6 <.rdata+0xe6>
   140004d03:	e9 47 ff ff ff       	jmp    140004c4f <_matherr+0x3f>
   140004d08:	90                   	nop
   140004d09:	90                   	nop
   140004d0a:	90                   	nop
   140004d0b:	90                   	nop
   140004d0c:	90                   	nop
   140004d0d:	90                   	nop
   140004d0e:	90                   	nop
   140004d0f:	90                   	nop

0000000140004d10 <_fpreset>:
   140004d10:	db e3                	fninit
   140004d12:	c3                   	ret
   140004d13:	90                   	nop
   140004d14:	90                   	nop
   140004d15:	90                   	nop
   140004d16:	90                   	nop
   140004d17:	90                   	nop
   140004d18:	90                   	nop
   140004d19:	90                   	nop
   140004d1a:	90                   	nop
   140004d1b:	90                   	nop
   140004d1c:	90                   	nop
   140004d1d:	90                   	nop
   140004d1e:	90                   	nop
   140004d1f:	90                   	nop

0000000140004d20 <__report_error>:
   140004d20:	56                   	push   %rsi
   140004d21:	53                   	push   %rbx
   140004d22:	48 83 ec 38          	sub    $0x38,%rsp
   140004d26:	48 89 cb             	mov    %rcx,%rbx
   140004d29:	48 8d 44 24 58       	lea    0x58(%rsp),%rax
   140004d2e:	b9 02 00 00 00       	mov    $0x2,%ecx
   140004d33:	48 89 54 24 58       	mov    %rdx,0x58(%rsp)
   140004d38:	4c 89 44 24 60       	mov    %r8,0x60(%rsp)
   140004d3d:	4c 89 4c 24 68       	mov    %r9,0x68(%rsp)
   140004d42:	48 89 44 24 28       	mov    %rax,0x28(%rsp)
   140004d47:	e8 44 10 00 00       	call   140005d90 <__acrt_iob_func>
   140004d4c:	41 b8 1b 00 00 00    	mov    $0x1b,%r8d
   140004d52:	ba 01 00 00 00       	mov    $0x1,%edx
   140004d57:	48 8d 0d e2 4d 00 00 	lea    0x4de2(%rip),%rcx        # 140009b40 <.rdata>
   140004d5e:	49 89 c1             	mov    %rax,%r9
   140004d61:	e8 7a 10 00 00       	call   140005de0 <fwrite>
   140004d66:	48 8b 74 24 28       	mov    0x28(%rsp),%rsi
   140004d6b:	b9 02 00 00 00       	mov    $0x2,%ecx
   140004d70:	e8 1b 10 00 00       	call   140005d90 <__acrt_iob_func>
   140004d75:	48 89 da             	mov    %rbx,%rdx
   140004d78:	48 89 c1             	mov    %rax,%rcx
   140004d7b:	49 89 f0             	mov    %rsi,%r8
   140004d7e:	e8 0d 0e 00 00       	call   140005b90 <vfprintf>
   140004d83:	e8 c8 10 00 00       	call   140005e50 <abort>
   140004d88:	90                   	nop
   140004d89:	0f 1f 80 00 00 00 00 	nopl   0x0(%rax)

0000000140004d90 <mark_section_writable>:
   140004d90:	57                   	push   %rdi
   140004d91:	56                   	push   %rsi
   140004d92:	53                   	push   %rbx
   140004d93:	48 83 ec 50          	sub    $0x50,%rsp
   140004d97:	48 63 35 16 a8 00 00 	movslq 0xa816(%rip),%rsi        # 14000f5b4 <maxSections>
   140004d9e:	48 89 cb             	mov    %rcx,%rbx
   140004da1:	85 f6                	test   %esi,%esi
   140004da3:	0f 8e 17 01 00 00    	jle    140004ec0 <mark_section_writable+0x130>
   140004da9:	48 8b 05 08 a8 00 00 	mov    0xa808(%rip),%rax        # 14000f5b8 <the_secs>
   140004db0:	45 31 c9             	xor    %r9d,%r9d
   140004db3:	48 83 c0 18          	add    $0x18,%rax
   140004db7:	66 0f 1f 84 00 00 00 	nopw   0x0(%rax,%rax,1)
   140004dbe:	00 00 
   140004dc0:	4c 8b 00             	mov    (%rax),%r8
   140004dc3:	4c 39 c3             	cmp    %r8,%rbx
   140004dc6:	72 13                	jb     140004ddb <mark_section_writable+0x4b>
   140004dc8:	48 8b 50 08          	mov    0x8(%rax),%rdx
   140004dcc:	8b 52 08             	mov    0x8(%rdx),%edx
   140004dcf:	49 01 d0             	add    %rdx,%r8
   140004dd2:	4c 39 c3             	cmp    %r8,%rbx
   140004dd5:	0f 82 8a 00 00 00    	jb     140004e65 <mark_section_writable+0xd5>
   140004ddb:	41 83 c1 01          	add    $0x1,%r9d
   140004ddf:	48 83 c0 28          	add    $0x28,%rax
   140004de3:	41 39 f1             	cmp    %esi,%r9d
   140004de6:	75 d8                	jne    140004dc0 <mark_section_writable+0x30>
   140004de8:	48 89 d9             	mov    %rbx,%rcx
   140004deb:	e8 50 0a 00 00       	call   140005840 <__mingw_GetSectionForAddress>
   140004df0:	48 89 c7             	mov    %rax,%rdi
   140004df3:	48 85 c0             	test   %rax,%rax
   140004df6:	0f 84 e6 00 00 00    	je     140004ee2 <mark_section_writable+0x152>
   140004dfc:	48 8b 05 b5 a7 00 00 	mov    0xa7b5(%rip),%rax        # 14000f5b8 <the_secs>
   140004e03:	48 8d 1c b6          	lea    (%rsi,%rsi,4),%rbx
   140004e07:	48 c1 e3 03          	shl    $0x3,%rbx
   140004e0b:	48 01 d8             	add    %rbx,%rax
   140004e0e:	48 89 78 20          	mov    %rdi,0x20(%rax)
   140004e12:	c7 00 00 00 00 00    	movl   $0x0,(%rax)
   140004e18:	e8 63 0b 00 00       	call   140005980 <_GetPEImageBase>
   140004e1d:	8b 57 0c             	mov    0xc(%rdi),%edx
   140004e20:	41 b8 30 00 00 00    	mov    $0x30,%r8d
   140004e26:	48 8d 0c 10          	lea    (%rax,%rdx,1),%rcx
   140004e2a:	48 8b 05 87 a7 00 00 	mov    0xa787(%rip),%rax        # 14000f5b8 <the_secs>
   140004e31:	48 8d 54 24 20       	lea    0x20(%rsp),%rdx
   140004e36:	48 89 4c 18 18       	mov    %rcx,0x18(%rax,%rbx,1)
   140004e3b:	ff 15 ef b4 00 00    	call   *0xb4ef(%rip)        # 140010330 <__imp_VirtualQuery>
   140004e41:	48 85 c0             	test   %rax,%rax
   140004e44:	0f 84 7d 00 00 00    	je     140004ec7 <mark_section_writable+0x137>
   140004e4a:	8b 44 24 44          	mov    0x44(%rsp),%eax
   140004e4e:	8d 50 fc             	lea    -0x4(%rax),%edx
   140004e51:	83 e2 fb             	and    $0xfffffffb,%edx
   140004e54:	74 08                	je     140004e5e <mark_section_writable+0xce>
   140004e56:	8d 50 c0             	lea    -0x40(%rax),%edx
   140004e59:	83 e2 bf             	and    $0xffffffbf,%edx
   140004e5c:	75 12                	jne    140004e70 <mark_section_writable+0xe0>
   140004e5e:	83 05 4f a7 00 00 01 	addl   $0x1,0xa74f(%rip)        # 14000f5b4 <maxSections>
   140004e65:	48 83 c4 50          	add    $0x50,%rsp
   140004e69:	5b                   	pop    %rbx
   140004e6a:	5e                   	pop    %rsi
   140004e6b:	5f                   	pop    %rdi
   140004e6c:	c3                   	ret
   140004e6d:	0f 1f 00             	nopl   (%rax)
   140004e70:	83 f8 02             	cmp    $0x2,%eax
   140004e73:	48 8b 4c 24 20       	mov    0x20(%rsp),%rcx
   140004e78:	48 8b 54 24 38       	mov    0x38(%rsp),%rdx
   140004e7d:	41 b8 40 00 00 00    	mov    $0x40,%r8d
   140004e83:	b8 04 00 00 00       	mov    $0x4,%eax
   140004e88:	44 0f 44 c0          	cmove  %eax,%r8d
   140004e8c:	48 03 1d 25 a7 00 00 	add    0xa725(%rip),%rbx        # 14000f5b8 <the_secs>
   140004e93:	48 89 4b 08          	mov    %rcx,0x8(%rbx)
   140004e97:	49 89 d9             	mov    %rbx,%r9
   140004e9a:	48 89 53 10          	mov    %rdx,0x10(%rbx)
   140004e9e:	ff 15 84 b4 00 00    	call   *0xb484(%rip)        # 140010328 <__imp_VirtualProtect>
   140004ea4:	85 c0                	test   %eax,%eax
   140004ea6:	75 b6                	jne    140004e5e <mark_section_writable+0xce>
   140004ea8:	ff 15 4a b4 00 00    	call   *0xb44a(%rip)        # 1400102f8 <__imp_GetLastError>
   140004eae:	48 8d 0d 03 4d 00 00 	lea    0x4d03(%rip),%rcx        # 140009bb8 <.rdata+0x78>
   140004eb5:	89 c2                	mov    %eax,%edx
   140004eb7:	e8 64 fe ff ff       	call   140004d20 <__report_error>
   140004ebc:	0f 1f 40 00          	nopl   0x0(%rax)
   140004ec0:	31 f6                	xor    %esi,%esi
   140004ec2:	e9 21 ff ff ff       	jmp    140004de8 <mark_section_writable+0x58>
   140004ec7:	48 8b 05 ea a6 00 00 	mov    0xa6ea(%rip),%rax        # 14000f5b8 <the_secs>
   140004ece:	8b 57 08             	mov    0x8(%rdi),%edx
   140004ed1:	48 8d 0d a8 4c 00 00 	lea    0x4ca8(%rip),%rcx        # 140009b80 <.rdata+0x40>
   140004ed8:	4c 8b 44 18 18       	mov    0x18(%rax,%rbx,1),%r8
   140004edd:	e8 3e fe ff ff       	call   140004d20 <__report_error>
   140004ee2:	48 89 da             	mov    %rbx,%rdx
   140004ee5:	48 8d 0d 74 4c 00 00 	lea    0x4c74(%rip),%rcx        # 140009b60 <.rdata+0x20>
   140004eec:	e8 2f fe ff ff       	call   140004d20 <__report_error>
   140004ef1:	90                   	nop
   140004ef2:	66 66 2e 0f 1f 84 00 	data16 cs nopw 0x0(%rax,%rax,1)
   140004ef9:	00 00 00 00 
   140004efd:	0f 1f 00             	nopl   (%rax)

0000000140004f00 <_pei386_runtime_relocator>:
   140004f00:	55                   	push   %rbp
   140004f01:	41 57                	push   %r15
   140004f03:	41 56                	push   %r14
   140004f05:	41 55                	push   %r13
   140004f07:	41 54                	push   %r12
   140004f09:	57                   	push   %rdi
   140004f0a:	56                   	push   %rsi
   140004f0b:	53                   	push   %rbx
   140004f0c:	48 83 ec 48          	sub    $0x48,%rsp
   140004f10:	48 8d 6c 24 40       	lea    0x40(%rsp),%rbp
   140004f15:	44 8b 25 94 a6 00 00 	mov    0xa694(%rip),%r12d        # 14000f5b0 <was_init.0>
   140004f1c:	45 85 e4             	test   %r12d,%r12d
   140004f1f:	74 17                	je     140004f38 <_pei386_runtime_relocator+0x38>
   140004f21:	48 8d 65 08          	lea    0x8(%rbp),%rsp
   140004f25:	5b                   	pop    %rbx
   140004f26:	5e                   	pop    %rsi
   140004f27:	5f                   	pop    %rdi
   140004f28:	41 5c                	pop    %r12
   140004f2a:	41 5d                	pop    %r13
   140004f2c:	41 5e                	pop    %r14
   140004f2e:	41 5f                	pop    %r15
   140004f30:	5d                   	pop    %rbp
   140004f31:	c3                   	ret
   140004f32:	66 0f 1f 44 00 00    	nopw   0x0(%rax,%rax,1)
   140004f38:	c7 05 6e a6 00 00 01 	movl   $0x1,0xa66e(%rip)        # 14000f5b0 <was_init.0>
   140004f3f:	00 00 00 
   140004f42:	e8 79 09 00 00       	call   1400058c0 <__mingw_GetSectionCount>
   140004f47:	48 98                	cltq
   140004f49:	48 8d 04 80          	lea    (%rax,%rax,4),%rax
   140004f4d:	48 8d 04 c5 0f 00 00 	lea    0xf(,%rax,8),%rax
   140004f54:	00 
   140004f55:	48 83 e0 f0          	and    $0xfffffffffffffff0,%rax
   140004f59:	e8 c2 0b 00 00       	call   140005b20 <___chkstk_ms>
   140004f5e:	4c 8b 2d cb 4d 00 00 	mov    0x4dcb(%rip),%r13        # 140009d30 <.refptr.__RUNTIME_PSEUDO_RELOC_LIST_END__>
   140004f65:	48 8b 1d d4 4d 00 00 	mov    0x4dd4(%rip),%rbx        # 140009d40 <.refptr.__RUNTIME_PSEUDO_RELOC_LIST__>
   140004f6c:	48 29 c4             	sub    %rax,%rsp
   140004f6f:	c7 05 3b a6 00 00 00 	movl   $0x0,0xa63b(%rip)        # 14000f5b4 <maxSections>
   140004f76:	00 00 00 
   140004f79:	48 8d 44 24 30       	lea    0x30(%rsp),%rax
   140004f7e:	48 89 05 33 a6 00 00 	mov    %rax,0xa633(%rip)        # 14000f5b8 <the_secs>
   140004f85:	4c 89 e8             	mov    %r13,%rax
   140004f88:	48 29 d8             	sub    %rbx,%rax
   140004f8b:	48 83 f8 07          	cmp    $0x7,%rax
   140004f8f:	7e 90                	jle    140004f21 <_pei386_runtime_relocator+0x21>
   140004f91:	48 83 f8 0b          	cmp    $0xb,%rax
   140004f95:	0f 8f 5d 01 00 00    	jg     1400050f8 <_pei386_runtime_relocator+0x1f8>
   140004f9b:	8b 03                	mov    (%rbx),%eax
   140004f9d:	85 c0                	test   %eax,%eax
   140004f9f:	0f 85 5b 02 00 00    	jne    140005200 <_pei386_runtime_relocator+0x300>
   140004fa5:	8b 43 04             	mov    0x4(%rbx),%eax
   140004fa8:	85 c0                	test   %eax,%eax
   140004faa:	0f 85 50 02 00 00    	jne    140005200 <_pei386_runtime_relocator+0x300>
   140004fb0:	8b 53 08             	mov    0x8(%rbx),%edx
   140004fb3:	83 fa 01             	cmp    $0x1,%edx
   140004fb6:	0f 85 9a 02 00 00    	jne    140005256 <_pei386_runtime_relocator+0x356>
   140004fbc:	48 83 c3 0c          	add    $0xc,%rbx
   140004fc0:	4c 39 eb             	cmp    %r13,%rbx
   140004fc3:	0f 83 58 ff ff ff    	jae    140004f21 <_pei386_runtime_relocator+0x21>
   140004fc9:	4c 8b 35 50 4d 00 00 	mov    0x4d50(%rip),%r14        # 140009d20 <.refptr.__ImageBase>
   140004fd0:	41 bf ff ff ff ff    	mov    $0xffffffff,%r15d
   140004fd6:	eb 6b                	jmp    140005043 <_pei386_runtime_relocator+0x143>
   140004fd8:	0f 1f 84 00 00 00 00 	nopl   0x0(%rax,%rax,1)
   140004fdf:	00 
   140004fe0:	83 f9 08             	cmp    $0x8,%ecx
   140004fe3:	0f 84 37 01 00 00    	je     140005120 <_pei386_runtime_relocator+0x220>
   140004fe9:	83 f9 10             	cmp    $0x10,%ecx
   140004fec:	0f 85 40 02 00 00    	jne    140005232 <_pei386_runtime_relocator+0x332>
   140004ff2:	0f b7 37             	movzwl (%rdi),%esi
   140004ff5:	81 e2 c0 00 00 00    	and    $0xc0,%edx
   140004ffb:	66 85 f6             	test   %si,%si
   140004ffe:	0f 89 e4 01 00 00    	jns    1400051e8 <_pei386_runtime_relocator+0x2e8>
   140005004:	48 81 ce 00 00 ff ff 	or     $0xffffffffffff0000,%rsi
   14000500b:	48 29 c6             	sub    %rax,%rsi
   14000500e:	4c 01 ce             	add    %r9,%rsi
   140005011:	85 d2                	test   %edx,%edx
   140005013:	75 1a                	jne    14000502f <_pei386_runtime_relocator+0x12f>
   140005015:	48 81 fe ff ff 00 00 	cmp    $0xffff,%rsi
   14000501c:	0f 8f 1e 02 00 00    	jg     140005240 <_pei386_runtime_relocator+0x340>
   140005022:	48 81 fe 00 80 ff ff 	cmp    $0xffffffffffff8000,%rsi
   140005029:	0f 8c 11 02 00 00    	jl     140005240 <_pei386_runtime_relocator+0x340>
   14000502f:	48 89 f9             	mov    %rdi,%rcx
   140005032:	e8 59 fd ff ff       	call   140004d90 <mark_section_writable>
   140005037:	66 89 37             	mov    %si,(%rdi)
   14000503a:	48 83 c3 0c          	add    $0xc,%rbx
   14000503e:	4c 39 eb             	cmp    %r13,%rbx
   140005041:	73 5d                	jae    1400050a0 <_pei386_runtime_relocator+0x1a0>
   140005043:	8b 03                	mov    (%rbx),%eax
   140005045:	8b 53 08             	mov    0x8(%rbx),%edx
   140005048:	8b 7b 04             	mov    0x4(%rbx),%edi
   14000504b:	4c 01 f0             	add    %r14,%rax
   14000504e:	0f b6 ca             	movzbl %dl,%ecx
   140005051:	4c 8b 08             	mov    (%rax),%r9
   140005054:	4c 01 f7             	add    %r14,%rdi
   140005057:	83 f9 20             	cmp    $0x20,%ecx
   14000505a:	0f 84 10 01 00 00    	je     140005170 <_pei386_runtime_relocator+0x270>
   140005060:	0f 86 7a ff ff ff    	jbe    140004fe0 <_pei386_runtime_relocator+0xe0>
   140005066:	83 f9 40             	cmp    $0x40,%ecx
   140005069:	0f 85 c3 01 00 00    	jne    140005232 <_pei386_runtime_relocator+0x332>
   14000506f:	48 8b 37             	mov    (%rdi),%rsi
   140005072:	48 29 c6             	sub    %rax,%rsi
   140005075:	4c 01 ce             	add    %r9,%rsi
   140005078:	81 e2 c0 00 00 00    	and    $0xc0,%edx
   14000507e:	75 09                	jne    140005089 <_pei386_runtime_relocator+0x189>
   140005080:	48 85 f6             	test   %rsi,%rsi
   140005083:	0f 89 b7 01 00 00    	jns    140005240 <_pei386_runtime_relocator+0x340>
   140005089:	48 89 f9             	mov    %rdi,%rcx
   14000508c:	48 83 c3 0c          	add    $0xc,%rbx
   140005090:	e8 fb fc ff ff       	call   140004d90 <mark_section_writable>
   140005095:	48 89 37             	mov    %rsi,(%rdi)
   140005098:	4c 39 eb             	cmp    %r13,%rbx
   14000509b:	72 a6                	jb     140005043 <_pei386_runtime_relocator+0x143>
   14000509d:	0f 1f 00             	nopl   (%rax)
   1400050a0:	8b 0d 0e a5 00 00    	mov    0xa50e(%rip),%ecx        # 14000f5b4 <maxSections>
   1400050a6:	85 c9                	test   %ecx,%ecx
   1400050a8:	0f 8e 73 fe ff ff    	jle    140004f21 <_pei386_runtime_relocator+0x21>
   1400050ae:	48 8b 35 73 b2 00 00 	mov    0xb273(%rip),%rsi        # 140010328 <__imp_VirtualProtect>
   1400050b5:	31 db                	xor    %ebx,%ebx
   1400050b7:	48 8d 7d fc          	lea    -0x4(%rbp),%rdi
   1400050bb:	0f 1f 44 00 00       	nopl   0x0(%rax,%rax,1)
   1400050c0:	48 8b 05 f1 a4 00 00 	mov    0xa4f1(%rip),%rax        # 14000f5b8 <the_secs>
   1400050c7:	48 01 d8             	add    %rbx,%rax
   1400050ca:	44 8b 00             	mov    (%rax),%r8d
   1400050cd:	45 85 c0             	test   %r8d,%r8d
   1400050d0:	74 0d                	je     1400050df <_pei386_runtime_relocator+0x1df>
   1400050d2:	48 8b 50 10          	mov    0x10(%rax),%rdx
   1400050d6:	48 8b 48 08          	mov    0x8(%rax),%rcx
   1400050da:	49 89 f9             	mov    %rdi,%r9
   1400050dd:	ff d6                	call   *%rsi
   1400050df:	41 83 c4 01          	add    $0x1,%r12d
   1400050e3:	48 83 c3 28          	add    $0x28,%rbx
   1400050e7:	44 3b 25 c6 a4 00 00 	cmp    0xa4c6(%rip),%r12d        # 14000f5b4 <maxSections>
   1400050ee:	7c d0                	jl     1400050c0 <_pei386_runtime_relocator+0x1c0>
   1400050f0:	e9 2c fe ff ff       	jmp    140004f21 <_pei386_runtime_relocator+0x21>
   1400050f5:	0f 1f 00             	nopl   (%rax)
   1400050f8:	8b 13                	mov    (%rbx),%edx
   1400050fa:	85 d2                	test   %edx,%edx
   1400050fc:	0f 85 fe 00 00 00    	jne    140005200 <_pei386_runtime_relocator+0x300>
   140005102:	8b 43 04             	mov    0x4(%rbx),%eax
   140005105:	89 c1                	mov    %eax,%ecx
   140005107:	0b 4b 08             	or     0x8(%rbx),%ecx
   14000510a:	0f 85 98 fe ff ff    	jne    140004fa8 <_pei386_runtime_relocator+0xa8>
   140005110:	48 83 c3 0c          	add    $0xc,%rbx
   140005114:	e9 82 fe ff ff       	jmp    140004f9b <_pei386_runtime_relocator+0x9b>
   140005119:	0f 1f 80 00 00 00 00 	nopl   0x0(%rax)
   140005120:	0f b6 37             	movzbl (%rdi),%esi
   140005123:	81 e2 c0 00 00 00    	and    $0xc0,%edx
   140005129:	40 84 f6             	test   %sil,%sil
   14000512c:	0f 89 9e 00 00 00    	jns    1400051d0 <_pei386_runtime_relocator+0x2d0>
   140005132:	48 81 ce 00 ff ff ff 	or     $0xffffffffffffff00,%rsi
   140005139:	48 29 c6             	sub    %rax,%rsi
   14000513c:	4c 01 ce             	add    %r9,%rsi
   14000513f:	85 d2                	test   %edx,%edx
   140005141:	75 17                	jne    14000515a <_pei386_runtime_relocator+0x25a>
   140005143:	48 81 fe ff 00 00 00 	cmp    $0xff,%rsi
   14000514a:	0f 8f f0 00 00 00    	jg     140005240 <_pei386_runtime_relocator+0x340>
   140005150:	48 83 fe 80          	cmp    $0xffffffffffffff80,%rsi
   140005154:	0f 8c e6 00 00 00    	jl     140005240 <_pei386_runtime_relocator+0x340>
   14000515a:	48 89 f9             	mov    %rdi,%rcx
   14000515d:	e8 2e fc ff ff       	call   140004d90 <mark_section_writable>
   140005162:	40 88 37             	mov    %sil,(%rdi)
   140005165:	e9 d0 fe ff ff       	jmp    14000503a <_pei386_runtime_relocator+0x13a>
   14000516a:	66 0f 1f 44 00 00    	nopw   0x0(%rax,%rax,1)
   140005170:	8b 37                	mov    (%rdi),%esi
   140005172:	81 e2 c0 00 00 00    	and    $0xc0,%edx
   140005178:	85 f6                	test   %esi,%esi
   14000517a:	79 44                	jns    1400051c0 <_pei386_runtime_relocator+0x2c0>
   14000517c:	49 bb 00 00 00 00 ff 	movabs $0xffffffff00000000,%r11
   140005183:	ff ff ff 
   140005186:	4c 09 de             	or     %r11,%rsi
   140005189:	48 29 c6             	sub    %rax,%rsi
   14000518c:	4c 01 ce             	add    %r9,%rsi
   14000518f:	85 d2                	test   %edx,%edx
   140005191:	75 1c                	jne    1400051af <_pei386_runtime_relocator+0x2af>
   140005193:	4c 39 fe             	cmp    %r15,%rsi
   140005196:	0f 8f a4 00 00 00    	jg     140005240 <_pei386_runtime_relocator+0x340>
   14000519c:	48 b8 ff ff ff 7f ff 	movabs $0xffffffff7fffffff,%rax
   1400051a3:	ff ff ff 
   1400051a6:	48 39 c6             	cmp    %rax,%rsi
   1400051a9:	0f 8e 91 00 00 00    	jle    140005240 <_pei386_runtime_relocator+0x340>
   1400051af:	48 89 f9             	mov    %rdi,%rcx
   1400051b2:	e8 d9 fb ff ff       	call   140004d90 <mark_section_writable>
   1400051b7:	89 37                	mov    %esi,(%rdi)
   1400051b9:	e9 7c fe ff ff       	jmp    14000503a <_pei386_runtime_relocator+0x13a>
   1400051be:	66 90                	xchg   %ax,%ax
   1400051c0:	48 29 c6             	sub    %rax,%rsi
   1400051c3:	4c 01 ce             	add    %r9,%rsi
   1400051c6:	85 d2                	test   %edx,%edx
   1400051c8:	74 c9                	je     140005193 <_pei386_runtime_relocator+0x293>
   1400051ca:	eb e3                	jmp    1400051af <_pei386_runtime_relocator+0x2af>
   1400051cc:	0f 1f 40 00          	nopl   0x0(%rax)
   1400051d0:	48 29 c6             	sub    %rax,%rsi
   1400051d3:	4c 01 ce             	add    %r9,%rsi
   1400051d6:	85 d2                	test   %edx,%edx
   1400051d8:	0f 84 65 ff ff ff    	je     140005143 <_pei386_runtime_relocator+0x243>
   1400051de:	e9 77 ff ff ff       	jmp    14000515a <_pei386_runtime_relocator+0x25a>
   1400051e3:	0f 1f 44 00 00       	nopl   0x0(%rax,%rax,1)
   1400051e8:	48 29 c6             	sub    %rax,%rsi
   1400051eb:	4c 01 ce             	add    %r9,%rsi
   1400051ee:	85 d2                	test   %edx,%edx
   1400051f0:	0f 84 1f fe ff ff    	je     140005015 <_pei386_runtime_relocator+0x115>
   1400051f6:	e9 34 fe ff ff       	jmp    14000502f <_pei386_runtime_relocator+0x12f>
   1400051fb:	0f 1f 44 00 00       	nopl   0x0(%rax,%rax,1)
   140005200:	4c 39 eb             	cmp    %r13,%rbx
   140005203:	0f 83 18 fd ff ff    	jae    140004f21 <_pei386_runtime_relocator+0x21>
   140005209:	4c 8b 35 10 4b 00 00 	mov    0x4b10(%rip),%r14        # 140009d20 <.refptr.__ImageBase>
   140005210:	8b 73 04             	mov    0x4(%rbx),%esi
   140005213:	8b 3b                	mov    (%rbx),%edi
   140005215:	48 83 c3 08          	add    $0x8,%rbx
   140005219:	4c 01 f6             	add    %r14,%rsi
   14000521c:	03 3e                	add    (%rsi),%edi
   14000521e:	48 89 f1             	mov    %rsi,%rcx
   140005221:	e8 6a fb ff ff       	call   140004d90 <mark_section_writable>
   140005226:	89 3e                	mov    %edi,(%rsi)
   140005228:	4c 39 eb             	cmp    %r13,%rbx
   14000522b:	72 e3                	jb     140005210 <_pei386_runtime_relocator+0x310>
   14000522d:	e9 6e fe ff ff       	jmp    1400050a0 <_pei386_runtime_relocator+0x1a0>
   140005232:	89 ca                	mov    %ecx,%edx
   140005234:	48 8d 0d dd 49 00 00 	lea    0x49dd(%rip),%rcx        # 140009c18 <.rdata+0xd8>
   14000523b:	e8 e0 fa ff ff       	call   140004d20 <__report_error>
   140005240:	48 89 74 24 20       	mov    %rsi,0x20(%rsp)
   140005245:	89 ca                	mov    %ecx,%edx
   140005247:	49 89 f8             	mov    %rdi,%r8
   14000524a:	48 8d 0d f7 49 00 00 	lea    0x49f7(%rip),%rcx        # 140009c48 <.rdata+0x108>
   140005251:	e8 ca fa ff ff       	call   140004d20 <__report_error>
   140005256:	48 8d 0d 83 49 00 00 	lea    0x4983(%rip),%rcx        # 140009be0 <.rdata+0xa0>
   14000525d:	e8 be fa ff ff       	call   140004d20 <__report_error>
   140005262:	90                   	nop
   140005263:	90                   	nop
   140005264:	90                   	nop
   140005265:	90                   	nop
   140005266:	90                   	nop
   140005267:	90                   	nop
   140005268:	90                   	nop
   140005269:	90                   	nop
   14000526a:	90                   	nop
   14000526b:	90                   	nop
   14000526c:	90                   	nop
   14000526d:	90                   	nop
   14000526e:	90                   	nop
   14000526f:	90                   	nop

0000000140005270 <__mingw_raise_matherr>:
   140005270:	48 83 ec 58          	sub    $0x58,%rsp
   140005274:	48 8b 05 45 a3 00 00 	mov    0xa345(%rip),%rax        # 14000f5c0 <stUserMathErr>
   14000527b:	66 0f 14 d3          	unpcklpd %xmm3,%xmm2
   14000527f:	48 85 c0             	test   %rax,%rax
   140005282:	74 25                	je     1400052a9 <__mingw_raise_matherr+0x39>
   140005284:	f2 0f 10 84 24 80 00 	movsd  0x80(%rsp),%xmm0
   14000528b:	00 00 
   14000528d:	89 4c 24 20          	mov    %ecx,0x20(%rsp)
   140005291:	48 8d 4c 24 20       	lea    0x20(%rsp),%rcx
   140005296:	48 89 54 24 28       	mov    %rdx,0x28(%rsp)
   14000529b:	0f 11 54 24 30       	movups %xmm2,0x30(%rsp)
   1400052a0:	f2 0f 11 44 24 40    	movsd  %xmm0,0x40(%rsp)
   1400052a6:	ff d0                	call   *%rax
   1400052a8:	90                   	nop
   1400052a9:	48 83 c4 58          	add    $0x58,%rsp
   1400052ad:	c3                   	ret
   1400052ae:	66 90                	xchg   %ax,%ax

00000001400052b0 <__mingw_setusermatherr>:
   1400052b0:	48 89 0d 09 a3 00 00 	mov    %rcx,0xa309(%rip)        # 14000f5c0 <stUserMathErr>
   1400052b7:	e9 c4 0b 00 00       	jmp    140005e80 <__setusermatherr>
   1400052bc:	90                   	nop
   1400052bd:	90                   	nop
   1400052be:	90                   	nop
   1400052bf:	90                   	nop

00000001400052c0 <_gnu_exception_handler>:
   1400052c0:	53                   	push   %rbx
   1400052c1:	48 83 ec 20          	sub    $0x20,%rsp
   1400052c5:	48 8b 11             	mov    (%rcx),%rdx
   1400052c8:	8b 02                	mov    (%rdx),%eax
   1400052ca:	48 89 cb             	mov    %rcx,%rbx
   1400052cd:	89 c1                	mov    %eax,%ecx
   1400052cf:	81 e1 ff ff ff 20    	and    $0x20ffffff,%ecx
   1400052d5:	81 f9 43 43 47 20    	cmp    $0x20474343,%ecx
   1400052db:	0f 84 8f 00 00 00    	je     140005370 <_gnu_exception_handler+0xb0>
   1400052e1:	3d 96 00 00 c0       	cmp    $0xc0000096,%eax
   1400052e6:	77 47                	ja     14000532f <_gnu_exception_handler+0x6f>
   1400052e8:	3d 8b 00 00 c0       	cmp    $0xc000008b,%eax
   1400052ed:	76 61                	jbe    140005350 <_gnu_exception_handler+0x90>
   1400052ef:	05 73 ff ff 3f       	add    $0x3fffff73,%eax
   1400052f4:	83 f8 09             	cmp    $0x9,%eax
   1400052f7:	77 6b                	ja     140005364 <_gnu_exception_handler+0xa4>
   1400052f9:	48 8d 15 a0 49 00 00 	lea    0x49a0(%rip),%rdx        # 140009ca0 <.rdata>
   140005300:	48 63 04 82          	movslq (%rdx,%rax,4),%rax
   140005304:	48 01 d0             	add    %rdx,%rax
   140005307:	ff e0                	jmp    *%rax
   140005309:	0f 1f 80 00 00 00 00 	nopl   0x0(%rax)
   140005310:	31 d2                	xor    %edx,%edx
   140005312:	b9 08 00 00 00       	mov    $0x8,%ecx
   140005317:	e8 44 0b 00 00       	call   140005e60 <signal>
   14000531c:	48 83 f8 01          	cmp    $0x1,%rax
   140005320:	0f 84 3e 01 00 00    	je     140005464 <_gnu_exception_handler+0x1a4>
   140005326:	48 85 c0             	test   %rax,%rax
   140005329:	0f 85 01 01 00 00    	jne    140005430 <_gnu_exception_handler+0x170>
   14000532f:	48 8b 05 aa a2 00 00 	mov    0xa2aa(%rip),%rax        # 14000f5e0 <__mingw_oldexcpt_handler>
   140005336:	48 85 c0             	test   %rax,%rax
   140005339:	74 45                	je     140005380 <_gnu_exception_handler+0xc0>
   14000533b:	48 89 d9             	mov    %rbx,%rcx
   14000533e:	48 83 c4 20          	add    $0x20,%rsp
   140005342:	5b                   	pop    %rbx
   140005343:	48 ff e0             	rex.W jmp *%rax
   140005346:	66 2e 0f 1f 84 00 00 	cs nopw 0x0(%rax,%rax,1)
   14000534d:	00 00 00 
   140005350:	3d 05 00 00 c0       	cmp    $0xc0000005,%eax
   140005355:	0f 84 a5 00 00 00    	je     140005400 <_gnu_exception_handler+0x140>
   14000535b:	77 33                	ja     140005390 <_gnu_exception_handler+0xd0>
   14000535d:	3d 02 00 00 80       	cmp    $0x80000002,%eax
   140005362:	75 cb                	jne    14000532f <_gnu_exception_handler+0x6f>
   140005364:	b8 ff ff ff ff       	mov    $0xffffffff,%eax
   140005369:	48 83 c4 20          	add    $0x20,%rsp
   14000536d:	5b                   	pop    %rbx
   14000536e:	c3                   	ret
   14000536f:	90                   	nop
   140005370:	f6 42 04 01          	testb  $0x1,0x4(%rdx)
   140005374:	0f 85 67 ff ff ff    	jne    1400052e1 <_gnu_exception_handler+0x21>
   14000537a:	eb e8                	jmp    140005364 <_gnu_exception_handler+0xa4>
   14000537c:	0f 1f 40 00          	nopl   0x0(%rax)
   140005380:	31 c0                	xor    %eax,%eax
   140005382:	48 83 c4 20          	add    $0x20,%rsp
   140005386:	5b                   	pop    %rbx
   140005387:	c3                   	ret
   140005388:	0f 1f 84 00 00 00 00 	nopl   0x0(%rax,%rax,1)
   14000538f:	00 
   140005390:	3d 08 00 00 c0       	cmp    $0xc0000008,%eax
   140005395:	74 cd                	je     140005364 <_gnu_exception_handler+0xa4>
   140005397:	3d 1d 00 00 c0       	cmp    $0xc000001d,%eax
   14000539c:	75 91                	jne    14000532f <_gnu_exception_handler+0x6f>
   14000539e:	31 d2                	xor    %edx,%edx
   1400053a0:	b9 04 00 00 00       	mov    $0x4,%ecx
   1400053a5:	e8 b6 0a 00 00       	call   140005e60 <signal>
   1400053aa:	48 83 f8 01          	cmp    $0x1,%rax
   1400053ae:	0f 84 9c 00 00 00    	je     140005450 <_gnu_exception_handler+0x190>
   1400053b4:	48 85 c0             	test   %rax,%rax
   1400053b7:	0f 84 72 ff ff ff    	je     14000532f <_gnu_exception_handler+0x6f>
   1400053bd:	b9 04 00 00 00       	mov    $0x4,%ecx
   1400053c2:	ff d0                	call   *%rax
   1400053c4:	eb 9e                	jmp    140005364 <_gnu_exception_handler+0xa4>
   1400053c6:	66 2e 0f 1f 84 00 00 	cs nopw 0x0(%rax,%rax,1)
   1400053cd:	00 00 00 
   1400053d0:	31 d2                	xor    %edx,%edx
   1400053d2:	b9 08 00 00 00       	mov    $0x8,%ecx
   1400053d7:	e8 84 0a 00 00       	call   140005e60 <signal>
   1400053dc:	48 83 f8 01          	cmp    $0x1,%rax
   1400053e0:	0f 85 40 ff ff ff    	jne    140005326 <_gnu_exception_handler+0x66>
   1400053e6:	ba 01 00 00 00       	mov    $0x1,%edx
   1400053eb:	b9 08 00 00 00       	mov    $0x8,%ecx
   1400053f0:	e8 6b 0a 00 00       	call   140005e60 <signal>
   1400053f5:	e9 6a ff ff ff       	jmp    140005364 <_gnu_exception_handler+0xa4>
   1400053fa:	66 0f 1f 44 00 00    	nopw   0x0(%rax,%rax,1)
   140005400:	31 d2                	xor    %edx,%edx
   140005402:	b9 0b 00 00 00       	mov    $0xb,%ecx
   140005407:	e8 54 0a 00 00       	call   140005e60 <signal>
   14000540c:	48 83 f8 01          	cmp    $0x1,%rax
   140005410:	74 2a                	je     14000543c <_gnu_exception_handler+0x17c>
   140005412:	48 85 c0             	test   %rax,%rax
   140005415:	0f 84 14 ff ff ff    	je     14000532f <_gnu_exception_handler+0x6f>
   14000541b:	b9 0b 00 00 00       	mov    $0xb,%ecx
   140005420:	ff d0                	call   *%rax
   140005422:	e9 3d ff ff ff       	jmp    140005364 <_gnu_exception_handler+0xa4>
   140005427:	66 0f 1f 84 00 00 00 	nopw   0x0(%rax,%rax,1)
   14000542e:	00 00 
   140005430:	b9 08 00 00 00       	mov    $0x8,%ecx
   140005435:	ff d0                	call   *%rax
   140005437:	e9 28 ff ff ff       	jmp    140005364 <_gnu_exception_handler+0xa4>
   14000543c:	ba 01 00 00 00       	mov    $0x1,%edx
   140005441:	b9 0b 00 00 00       	mov    $0xb,%ecx
   140005446:	e8 15 0a 00 00       	call   140005e60 <signal>
   14000544b:	e9 14 ff ff ff       	jmp    140005364 <_gnu_exception_handler+0xa4>
   140005450:	ba 01 00 00 00       	mov    $0x1,%edx
   140005455:	b9 04 00 00 00       	mov    $0x4,%ecx
   14000545a:	e8 01 0a 00 00       	call   140005e60 <signal>
   14000545f:	e9 00 ff ff ff       	jmp    140005364 <_gnu_exception_handler+0xa4>
   140005464:	ba 01 00 00 00       	mov    $0x1,%edx
   140005469:	b9 08 00 00 00       	mov    $0x8,%ecx
   14000546e:	e8 ed 09 00 00       	call   140005e60 <signal>
   140005473:	e8 98 f8 ff ff       	call   140004d10 <_fpreset>
   140005478:	e9 e7 fe ff ff       	jmp    140005364 <_gnu_exception_handler+0xa4>
   14000547d:	90                   	nop
   14000547e:	90                   	nop
   14000547f:	90                   	nop

0000000140005480 <__mingwthr_run_key_dtors.part.0>:
   140005480:	41 54                	push   %r12
   140005482:	55                   	push   %rbp
   140005483:	57                   	push   %rdi
   140005484:	56                   	push   %rsi
   140005485:	53                   	push   %rbx
   140005486:	48 83 ec 20          	sub    $0x20,%rsp
   14000548a:	4c 8d 25 8f a1 00 00 	lea    0xa18f(%rip),%r12        # 14000f620 <__mingwthr_cs>
   140005491:	4c 89 e1             	mov    %r12,%rcx
   140005494:	ff 15 56 ae 00 00    	call   *0xae56(%rip)        # 1400102f0 <__imp_EnterCriticalSection>
   14000549a:	48 8b 1d 5f a1 00 00 	mov    0xa15f(%rip),%rbx        # 14000f600 <key_dtor_list>
   1400054a1:	48 85 db             	test   %rbx,%rbx
   1400054a4:	74 3e                	je     1400054e4 <__mingwthr_run_key_dtors.part.0+0x64>
   1400054a6:	48 8b 2d 73 ae 00 00 	mov    0xae73(%rip),%rbp        # 140010320 <__imp_TlsGetValue>
   1400054ad:	48 8b 3d 44 ae 00 00 	mov    0xae44(%rip),%rdi        # 1400102f8 <__imp_GetLastError>
   1400054b4:	66 66 2e 0f 1f 84 00 	data16 cs nopw 0x0(%rax,%rax,1)
   1400054bb:	00 00 00 00 
   1400054bf:	90                   	nop
   1400054c0:	8b 0b                	mov    (%rbx),%ecx
   1400054c2:	ff d5                	call   *%rbp
   1400054c4:	48 89 c6             	mov    %rax,%rsi
   1400054c7:	ff d7                	call   *%rdi
   1400054c9:	48 85 f6             	test   %rsi,%rsi
   1400054cc:	74 0d                	je     1400054db <__mingwthr_run_key_dtors.part.0+0x5b>
   1400054ce:	85 c0                	test   %eax,%eax
   1400054d0:	75 09                	jne    1400054db <__mingwthr_run_key_dtors.part.0+0x5b>
   1400054d2:	48 8b 43 08          	mov    0x8(%rbx),%rax
   1400054d6:	48 89 f1             	mov    %rsi,%rcx
   1400054d9:	ff d0                	call   *%rax
   1400054db:	48 8b 5b 10          	mov    0x10(%rbx),%rbx
   1400054df:	48 85 db             	test   %rbx,%rbx
   1400054e2:	75 dc                	jne    1400054c0 <__mingwthr_run_key_dtors.part.0+0x40>
   1400054e4:	4c 89 e1             	mov    %r12,%rcx
   1400054e7:	48 83 c4 20          	add    $0x20,%rsp
   1400054eb:	5b                   	pop    %rbx
   1400054ec:	5e                   	pop    %rsi
   1400054ed:	5f                   	pop    %rdi
   1400054ee:	5d                   	pop    %rbp
   1400054ef:	41 5c                	pop    %r12
   1400054f1:	48 ff 25 10 ae 00 00 	rex.W jmp *0xae10(%rip)        # 140010308 <__imp_LeaveCriticalSection>
   1400054f8:	0f 1f 84 00 00 00 00 	nopl   0x0(%rax,%rax,1)
   1400054ff:	00 

0000000140005500 <___w64_mingwthr_add_key_dtor>:
   140005500:	57                   	push   %rdi
   140005501:	56                   	push   %rsi
   140005502:	53                   	push   %rbx
   140005503:	48 83 ec 20          	sub    $0x20,%rsp
   140005507:	8b 05 fb a0 00 00    	mov    0xa0fb(%rip),%eax        # 14000f608 <__mingwthr_cs_init>
   14000550d:	89 cf                	mov    %ecx,%edi
   14000550f:	48 89 d6             	mov    %rdx,%rsi
   140005512:	85 c0                	test   %eax,%eax
   140005514:	75 0a                	jne    140005520 <___w64_mingwthr_add_key_dtor+0x20>
   140005516:	31 c0                	xor    %eax,%eax
   140005518:	48 83 c4 20          	add    $0x20,%rsp
   14000551c:	5b                   	pop    %rbx
   14000551d:	5e                   	pop    %rsi
   14000551e:	5f                   	pop    %rdi
   14000551f:	c3                   	ret
   140005520:	ba 18 00 00 00       	mov    $0x18,%edx
   140005525:	b9 01 00 00 00       	mov    $0x1,%ecx
   14000552a:	e8 69 09 00 00       	call   140005e98 <calloc>
   14000552f:	48 89 c3             	mov    %rax,%rbx
   140005532:	48 85 c0             	test   %rax,%rax
   140005535:	74 33                	je     14000556a <___w64_mingwthr_add_key_dtor+0x6a>
   140005537:	48 89 70 08          	mov    %rsi,0x8(%rax)
   14000553b:	48 8d 35 de a0 00 00 	lea    0xa0de(%rip),%rsi        # 14000f620 <__mingwthr_cs>
   140005542:	89 38                	mov    %edi,(%rax)
   140005544:	48 89 f1             	mov    %rsi,%rcx
   140005547:	ff 15 a3 ad 00 00    	call   *0xada3(%rip)        # 1400102f0 <__imp_EnterCriticalSection>
   14000554d:	48 8b 05 ac a0 00 00 	mov    0xa0ac(%rip),%rax        # 14000f600 <key_dtor_list>
   140005554:	48 89 f1             	mov    %rsi,%rcx
   140005557:	48 89 1d a2 a0 00 00 	mov    %rbx,0xa0a2(%rip)        # 14000f600 <key_dtor_list>
   14000555e:	48 89 43 10          	mov    %rax,0x10(%rbx)
   140005562:	ff 15 a0 ad 00 00    	call   *0xada0(%rip)        # 140010308 <__imp_LeaveCriticalSection>
   140005568:	eb ac                	jmp    140005516 <___w64_mingwthr_add_key_dtor+0x16>
   14000556a:	83 c8 ff             	or     $0xffffffff,%eax
   14000556d:	eb a9                	jmp    140005518 <___w64_mingwthr_add_key_dtor+0x18>
   14000556f:	90                   	nop

0000000140005570 <___w64_mingwthr_remove_key_dtor>:
   140005570:	56                   	push   %rsi
   140005571:	53                   	push   %rbx
   140005572:	48 83 ec 28          	sub    $0x28,%rsp
   140005576:	8b 05 8c a0 00 00    	mov    0xa08c(%rip),%eax        # 14000f608 <__mingwthr_cs_init>
   14000557c:	89 cb                	mov    %ecx,%ebx
   14000557e:	85 c0                	test   %eax,%eax
   140005580:	75 0e                	jne    140005590 <___w64_mingwthr_remove_key_dtor+0x20>
   140005582:	31 c0                	xor    %eax,%eax
   140005584:	48 83 c4 28          	add    $0x28,%rsp
   140005588:	5b                   	pop    %rbx
   140005589:	5e                   	pop    %rsi
   14000558a:	c3                   	ret
   14000558b:	0f 1f 44 00 00       	nopl   0x0(%rax,%rax,1)
   140005590:	48 8d 35 89 a0 00 00 	lea    0xa089(%rip),%rsi        # 14000f620 <__mingwthr_cs>
   140005597:	48 89 f1             	mov    %rsi,%rcx
   14000559a:	ff 15 50 ad 00 00    	call   *0xad50(%rip)        # 1400102f0 <__imp_EnterCriticalSection>
   1400055a0:	48 8b 0d 59 a0 00 00 	mov    0xa059(%rip),%rcx        # 14000f600 <key_dtor_list>
   1400055a7:	48 85 c9             	test   %rcx,%rcx
   1400055aa:	74 37                	je     1400055e3 <___w64_mingwthr_remove_key_dtor+0x73>
   1400055ac:	31 d2                	xor    %edx,%edx
   1400055ae:	eb 1b                	jmp    1400055cb <___w64_mingwthr_remove_key_dtor+0x5b>
   1400055b0:	66 66 2e 0f 1f 84 00 	data16 cs nopw 0x0(%rax,%rax,1)
   1400055b7:	00 00 00 00 
   1400055bb:	0f 1f 44 00 00       	nopl   0x0(%rax,%rax,1)
   1400055c0:	48 89 ca             	mov    %rcx,%rdx
   1400055c3:	48 85 c0             	test   %rax,%rax
   1400055c6:	74 1b                	je     1400055e3 <___w64_mingwthr_remove_key_dtor+0x73>
   1400055c8:	48 89 c1             	mov    %rax,%rcx
   1400055cb:	8b 01                	mov    (%rcx),%eax
   1400055cd:	39 d8                	cmp    %ebx,%eax
   1400055cf:	48 8b 41 10          	mov    0x10(%rcx),%rax
   1400055d3:	75 eb                	jne    1400055c0 <___w64_mingwthr_remove_key_dtor+0x50>
   1400055d5:	48 85 d2             	test   %rdx,%rdx
   1400055d8:	74 1e                	je     1400055f8 <___w64_mingwthr_remove_key_dtor+0x88>
   1400055da:	48 89 42 10          	mov    %rax,0x10(%rdx)
   1400055de:	e8 bd 08 00 00       	call   140005ea0 <free>
   1400055e3:	48 89 f1             	mov    %rsi,%rcx
   1400055e6:	ff 15 1c ad 00 00    	call   *0xad1c(%rip)        # 140010308 <__imp_LeaveCriticalSection>
   1400055ec:	31 c0                	xor    %eax,%eax
   1400055ee:	48 83 c4 28          	add    $0x28,%rsp
   1400055f2:	5b                   	pop    %rbx
   1400055f3:	5e                   	pop    %rsi
   1400055f4:	c3                   	ret
   1400055f5:	0f 1f 00             	nopl   (%rax)
   1400055f8:	48 89 05 01 a0 00 00 	mov    %rax,0xa001(%rip)        # 14000f600 <key_dtor_list>
   1400055ff:	eb dd                	jmp    1400055de <___w64_mingwthr_remove_key_dtor+0x6e>
   140005601:	66 66 2e 0f 1f 84 00 	data16 cs nopw 0x0(%rax,%rax,1)
   140005608:	00 00 00 00 
   14000560c:	0f 1f 40 00          	nopl   0x0(%rax)

0000000140005610 <__mingw_TLScallback>:
   140005610:	53                   	push   %rbx
   140005611:	48 83 ec 20          	sub    $0x20,%rsp
   140005615:	83 fa 02             	cmp    $0x2,%edx
   140005618:	0f 84 c2 00 00 00    	je     1400056e0 <__mingw_TLScallback+0xd0>
   14000561e:	77 30                	ja     140005650 <__mingw_TLScallback+0x40>
   140005620:	85 d2                	test   %edx,%edx
   140005622:	74 4c                	je     140005670 <__mingw_TLScallback+0x60>
   140005624:	8b 05 de 9f 00 00    	mov    0x9fde(%rip),%eax        # 14000f608 <__mingwthr_cs_init>
   14000562a:	85 c0                	test   %eax,%eax
   14000562c:	0f 84 ce 00 00 00    	je     140005700 <__mingw_TLScallback+0xf0>
   140005632:	c7 05 cc 9f 00 00 01 	movl   $0x1,0x9fcc(%rip)        # 14000f608 <__mingwthr_cs_init>
   140005639:	00 00 00 
   14000563c:	b8 01 00 00 00       	mov    $0x1,%eax
   140005641:	48 83 c4 20          	add    $0x20,%rsp
   140005645:	5b                   	pop    %rbx
   140005646:	c3                   	ret
   140005647:	66 0f 1f 84 00 00 00 	nopw   0x0(%rax,%rax,1)
   14000564e:	00 00 
   140005650:	83 fa 03             	cmp    $0x3,%edx
   140005653:	75 e7                	jne    14000563c <__mingw_TLScallback+0x2c>
   140005655:	8b 05 ad 9f 00 00    	mov    0x9fad(%rip),%eax        # 14000f608 <__mingwthr_cs_init>
   14000565b:	85 c0                	test   %eax,%eax
   14000565d:	74 dd                	je     14000563c <__mingw_TLScallback+0x2c>
   14000565f:	e8 1c fe ff ff       	call   140005480 <__mingwthr_run_key_dtors.part.0>
   140005664:	eb d6                	jmp    14000563c <__mingw_TLScallback+0x2c>
   140005666:	66 2e 0f 1f 84 00 00 	cs nopw 0x0(%rax,%rax,1)
   14000566d:	00 00 00 
   140005670:	8b 05 92 9f 00 00    	mov    0x9f92(%rip),%eax        # 14000f608 <__mingwthr_cs_init>
   140005676:	85 c0                	test   %eax,%eax
   140005678:	75 76                	jne    1400056f0 <__mingw_TLScallback+0xe0>
   14000567a:	8b 05 88 9f 00 00    	mov    0x9f88(%rip),%eax        # 14000f608 <__mingwthr_cs_init>
   140005680:	83 f8 01             	cmp    $0x1,%eax
   140005683:	75 b7                	jne    14000563c <__mingw_TLScallback+0x2c>
   140005685:	48 8b 1d 74 9f 00 00 	mov    0x9f74(%rip),%rbx        # 14000f600 <key_dtor_list>
   14000568c:	48 85 db             	test   %rbx,%rbx
   14000568f:	74 20                	je     1400056b1 <__mingw_TLScallback+0xa1>
   140005691:	66 66 2e 0f 1f 84 00 	data16 cs nopw 0x0(%rax,%rax,1)
   140005698:	00 00 00 00 
   14000569c:	0f 1f 40 00          	nopl   0x0(%rax)
   1400056a0:	48 89 d9             	mov    %rbx,%rcx
   1400056a3:	48 8b 5b 10          	mov    0x10(%rbx),%rbx
   1400056a7:	e8 f4 07 00 00       	call   140005ea0 <free>
   1400056ac:	48 85 db             	test   %rbx,%rbx
   1400056af:	75 ef                	jne    1400056a0 <__mingw_TLScallback+0x90>
   1400056b1:	48 8d 0d 68 9f 00 00 	lea    0x9f68(%rip),%rcx        # 14000f620 <__mingwthr_cs>
   1400056b8:	48 c7 05 3d 9f 00 00 	movq   $0x0,0x9f3d(%rip)        # 14000f600 <key_dtor_list>
   1400056bf:	00 00 00 00 
   1400056c3:	c7 05 3b 9f 00 00 00 	movl   $0x0,0x9f3b(%rip)        # 14000f608 <__mingwthr_cs_init>
   1400056ca:	00 00 00 
   1400056cd:	ff 15 15 ac 00 00    	call   *0xac15(%rip)        # 1400102e8 <__IAT_start__>
   1400056d3:	e9 64 ff ff ff       	jmp    14000563c <__mingw_TLScallback+0x2c>
   1400056d8:	0f 1f 84 00 00 00 00 	nopl   0x0(%rax,%rax,1)
   1400056df:	00 
   1400056e0:	e8 2b f6 ff ff       	call   140004d10 <_fpreset>
   1400056e5:	b8 01 00 00 00       	mov    $0x1,%eax
   1400056ea:	48 83 c4 20          	add    $0x20,%rsp
   1400056ee:	5b                   	pop    %rbx
   1400056ef:	c3                   	ret
   1400056f0:	e8 8b fd ff ff       	call   140005480 <__mingwthr_run_key_dtors.part.0>
   1400056f5:	eb 83                	jmp    14000567a <__mingw_TLScallback+0x6a>
   1400056f7:	66 0f 1f 84 00 00 00 	nopw   0x0(%rax,%rax,1)
   1400056fe:	00 00 
   140005700:	48 8d 0d 19 9f 00 00 	lea    0x9f19(%rip),%rcx        # 14000f620 <__mingwthr_cs>
   140005707:	ff 15 f3 ab 00 00    	call   *0xabf3(%rip)        # 140010300 <__imp_InitializeCriticalSection>
   14000570d:	e9 20 ff ff ff       	jmp    140005632 <__mingw_TLScallback+0x22>
   140005712:	90                   	nop
   140005713:	90                   	nop
   140005714:	90                   	nop
   140005715:	90                   	nop
   140005716:	90                   	nop
   140005717:	90                   	nop
   140005718:	90                   	nop
   140005719:	90                   	nop
   14000571a:	90                   	nop
   14000571b:	90                   	nop
   14000571c:	90                   	nop
   14000571d:	90                   	nop
   14000571e:	90                   	nop
   14000571f:	90                   	nop

0000000140005720 <_ValidateImageBase>:
   140005720:	31 c0                	xor    %eax,%eax
   140005722:	66 81 39 4d 5a       	cmpw   $0x5a4d,(%rcx)
   140005727:	75 0f                	jne    140005738 <_ValidateImageBase+0x18>
   140005729:	48 63 51 3c          	movslq 0x3c(%rcx),%rdx
   14000572d:	48 01 d1             	add    %rdx,%rcx
   140005730:	81 39 50 45 00 00    	cmpl   $0x4550,(%rcx)
   140005736:	74 08                	je     140005740 <_ValidateImageBase+0x20>
   140005738:	c3                   	ret
   140005739:	0f 1f 80 00 00 00 00 	nopl   0x0(%rax)
   140005740:	31 c0                	xor    %eax,%eax
   140005742:	66 81 79 18 0b 02    	cmpw   $0x20b,0x18(%rcx)
   140005748:	0f 94 c0             	sete   %al
   14000574b:	c3                   	ret
   14000574c:	0f 1f 40 00          	nopl   0x0(%rax)

0000000140005750 <_FindPESection>:
   140005750:	48 63 41 3c          	movslq 0x3c(%rcx),%rax
   140005754:	48 01 c1             	add    %rax,%rcx
   140005757:	0f b7 41 14          	movzwl 0x14(%rcx),%eax
   14000575b:	44 0f b7 41 06       	movzwl 0x6(%rcx),%r8d
   140005760:	48 8d 44 01 18       	lea    0x18(%rcx,%rax,1),%rax
   140005765:	66 45 85 c0          	test   %r8w,%r8w
   140005769:	74 32                	je     14000579d <_FindPESection+0x4d>
   14000576b:	41 8d 48 ff          	lea    -0x1(%r8),%ecx
   14000576f:	48 8d 0c 89          	lea    (%rcx,%rcx,4),%rcx
   140005773:	4c 8d 4c c8 28       	lea    0x28(%rax,%rcx,8),%r9
   140005778:	0f 1f 84 00 00 00 00 	nopl   0x0(%rax,%rax,1)
   14000577f:	00 
   140005780:	44 8b 40 0c          	mov    0xc(%rax),%r8d
   140005784:	4c 89 c1             	mov    %r8,%rcx
   140005787:	4c 39 c2             	cmp    %r8,%rdx
   14000578a:	72 08                	jb     140005794 <_FindPESection+0x44>
   14000578c:	03 48 08             	add    0x8(%rax),%ecx
   14000578f:	48 39 ca             	cmp    %rcx,%rdx
   140005792:	72 0b                	jb     14000579f <_FindPESection+0x4f>
   140005794:	48 83 c0 28          	add    $0x28,%rax
   140005798:	4c 39 c8             	cmp    %r9,%rax
   14000579b:	75 e3                	jne    140005780 <_FindPESection+0x30>
   14000579d:	31 c0                	xor    %eax,%eax
   14000579f:	c3                   	ret

00000001400057a0 <_FindPESectionByName>:
   1400057a0:	57                   	push   %rdi
   1400057a1:	56                   	push   %rsi
   1400057a2:	53                   	push   %rbx
   1400057a3:	48 83 ec 20          	sub    $0x20,%rsp
   1400057a7:	48 89 ce             	mov    %rcx,%rsi
   1400057aa:	e8 d1 05 00 00       	call   140005d80 <strlen>
   1400057af:	48 83 f8 08          	cmp    $0x8,%rax
   1400057b3:	77 7b                	ja     140005830 <_FindPESectionByName+0x90>
   1400057b5:	48 8b 15 64 45 00 00 	mov    0x4564(%rip),%rdx        # 140009d20 <.refptr.__ImageBase>
   1400057bc:	31 db                	xor    %ebx,%ebx
   1400057be:	66 81 3a 4d 5a       	cmpw   $0x5a4d,(%rdx)
   1400057c3:	75 59                	jne    14000581e <_FindPESectionByName+0x7e>
   1400057c5:	48 63 42 3c          	movslq 0x3c(%rdx),%rax
   1400057c9:	48 01 d0             	add    %rdx,%rax
   1400057cc:	81 38 50 45 00 00    	cmpl   $0x4550,(%rax)
   1400057d2:	75 4a                	jne    14000581e <_FindPESectionByName+0x7e>
   1400057d4:	66 81 78 18 0b 02    	cmpw   $0x20b,0x18(%rax)
   1400057da:	75 42                	jne    14000581e <_FindPESectionByName+0x7e>
   1400057dc:	0f b7 50 14          	movzwl 0x14(%rax),%edx
   1400057e0:	48 8d 5c 10 18       	lea    0x18(%rax,%rdx,1),%rbx
   1400057e5:	0f b7 50 06          	movzwl 0x6(%rax),%edx
   1400057e9:	66 85 d2             	test   %dx,%dx
   1400057ec:	74 42                	je     140005830 <_FindPESectionByName+0x90>
   1400057ee:	8d 42 ff             	lea    -0x1(%rdx),%eax
   1400057f1:	48 8d 04 80          	lea    (%rax,%rax,4),%rax
   1400057f5:	48 8d 7c c3 28       	lea    0x28(%rbx,%rax,8),%rdi
   1400057fa:	eb 0d                	jmp    140005809 <_FindPESectionByName+0x69>
   1400057fc:	0f 1f 40 00          	nopl   0x0(%rax)
   140005800:	48 83 c3 28          	add    $0x28,%rbx
   140005804:	48 39 fb             	cmp    %rdi,%rbx
   140005807:	74 27                	je     140005830 <_FindPESectionByName+0x90>
   140005809:	41 b8 08 00 00 00    	mov    $0x8,%r8d
   14000580f:	48 89 f2             	mov    %rsi,%rdx
   140005812:	48 89 d9             	mov    %rbx,%rcx
   140005815:	e8 6e 05 00 00       	call   140005d88 <strncmp>
   14000581a:	85 c0                	test   %eax,%eax
   14000581c:	75 e2                	jne    140005800 <_FindPESectionByName+0x60>
   14000581e:	48 89 d8             	mov    %rbx,%rax
   140005821:	48 83 c4 20          	add    $0x20,%rsp
   140005825:	5b                   	pop    %rbx
   140005826:	5e                   	pop    %rsi
   140005827:	5f                   	pop    %rdi
   140005828:	c3                   	ret
   140005829:	0f 1f 80 00 00 00 00 	nopl   0x0(%rax)
   140005830:	31 db                	xor    %ebx,%ebx
   140005832:	48 89 d8             	mov    %rbx,%rax
   140005835:	48 83 c4 20          	add    $0x20,%rsp
   140005839:	5b                   	pop    %rbx
   14000583a:	5e                   	pop    %rsi
   14000583b:	5f                   	pop    %rdi
   14000583c:	c3                   	ret
   14000583d:	0f 1f 00             	nopl   (%rax)

0000000140005840 <__mingw_GetSectionForAddress>:
   140005840:	48 8b 15 d9 44 00 00 	mov    0x44d9(%rip),%rdx        # 140009d20 <.refptr.__ImageBase>
   140005847:	31 c0                	xor    %eax,%eax
   140005849:	66 81 3a 4d 5a       	cmpw   $0x5a4d,(%rdx)
   14000584e:	75 10                	jne    140005860 <__mingw_GetSectionForAddress+0x20>
   140005850:	4c 63 42 3c          	movslq 0x3c(%rdx),%r8
   140005854:	49 01 d0             	add    %rdx,%r8
   140005857:	41 81 38 50 45 00 00 	cmpl   $0x4550,(%r8)
   14000585e:	74 08                	je     140005868 <__mingw_GetSectionForAddress+0x28>
   140005860:	c3                   	ret
   140005861:	0f 1f 80 00 00 00 00 	nopl   0x0(%rax)
   140005868:	66 41 81 78 18 0b 02 	cmpw   $0x20b,0x18(%r8)
   14000586f:	75 ef                	jne    140005860 <__mingw_GetSectionForAddress+0x20>
   140005871:	41 0f b7 40 14       	movzwl 0x14(%r8),%eax
   140005876:	48 29 d1             	sub    %rdx,%rcx
   140005879:	49 8d 44 00 18       	lea    0x18(%r8,%rax,1),%rax
   14000587e:	45 0f b7 40 06       	movzwl 0x6(%r8),%r8d
   140005883:	66 45 85 c0          	test   %r8w,%r8w
   140005887:	74 34                	je     1400058bd <__mingw_GetSectionForAddress+0x7d>
   140005889:	41 8d 50 ff          	lea    -0x1(%r8),%edx
   14000588d:	48 8d 14 92          	lea    (%rdx,%rdx,4),%rdx
   140005891:	4c 8d 4c d0 28       	lea    0x28(%rax,%rdx,8),%r9
   140005896:	66 2e 0f 1f 84 00 00 	cs nopw 0x0(%rax,%rax,1)
   14000589d:	00 00 00 
   1400058a0:	44 8b 40 0c          	mov    0xc(%rax),%r8d
   1400058a4:	4c 89 c2             	mov    %r8,%rdx
   1400058a7:	4c 39 c1             	cmp    %r8,%rcx
   1400058aa:	72 08                	jb     1400058b4 <__mingw_GetSectionForAddress+0x74>
   1400058ac:	03 50 08             	add    0x8(%rax),%edx
   1400058af:	48 39 d1             	cmp    %rdx,%rcx
   1400058b2:	72 ac                	jb     140005860 <__mingw_GetSectionForAddress+0x20>
   1400058b4:	48 83 c0 28          	add    $0x28,%rax
   1400058b8:	4c 39 c8             	cmp    %r9,%rax
   1400058bb:	75 e3                	jne    1400058a0 <__mingw_GetSectionForAddress+0x60>
   1400058bd:	31 c0                	xor    %eax,%eax
   1400058bf:	c3                   	ret

00000001400058c0 <__mingw_GetSectionCount>:
   1400058c0:	48 8b 05 59 44 00 00 	mov    0x4459(%rip),%rax        # 140009d20 <.refptr.__ImageBase>
   1400058c7:	31 c9                	xor    %ecx,%ecx
   1400058c9:	66 81 38 4d 5a       	cmpw   $0x5a4d,(%rax)
   1400058ce:	75 0f                	jne    1400058df <__mingw_GetSectionCount+0x1f>
   1400058d0:	48 63 50 3c          	movslq 0x3c(%rax),%rdx
   1400058d4:	48 01 d0             	add    %rdx,%rax
   1400058d7:	81 38 50 45 00 00    	cmpl   $0x4550,(%rax)
   1400058dd:	74 09                	je     1400058e8 <__mingw_GetSectionCount+0x28>
   1400058df:	89 c8                	mov    %ecx,%eax
   1400058e1:	c3                   	ret
   1400058e2:	66 0f 1f 44 00 00    	nopw   0x0(%rax,%rax,1)
   1400058e8:	66 81 78 18 0b 02    	cmpw   $0x20b,0x18(%rax)
   1400058ee:	75 ef                	jne    1400058df <__mingw_GetSectionCount+0x1f>
   1400058f0:	0f b7 48 06          	movzwl 0x6(%rax),%ecx
   1400058f4:	89 c8                	mov    %ecx,%eax
   1400058f6:	c3                   	ret
   1400058f7:	66 0f 1f 84 00 00 00 	nopw   0x0(%rax,%rax,1)
   1400058fe:	00 00 

0000000140005900 <_FindPESectionExec>:
   140005900:	4c 8b 05 19 44 00 00 	mov    0x4419(%rip),%r8        # 140009d20 <.refptr.__ImageBase>
   140005907:	31 c0                	xor    %eax,%eax
   140005909:	66 41 81 38 4d 5a    	cmpw   $0x5a4d,(%r8)
   14000590f:	75 0f                	jne    140005920 <_FindPESectionExec+0x20>
   140005911:	49 63 50 3c          	movslq 0x3c(%r8),%rdx
   140005915:	4c 01 c2             	add    %r8,%rdx
   140005918:	81 3a 50 45 00 00    	cmpl   $0x4550,(%rdx)
   14000591e:	74 08                	je     140005928 <_FindPESectionExec+0x28>
   140005920:	c3                   	ret
   140005921:	0f 1f 80 00 00 00 00 	nopl   0x0(%rax)
   140005928:	66 81 7a 18 0b 02    	cmpw   $0x20b,0x18(%rdx)
   14000592e:	75 f0                	jne    140005920 <_FindPESectionExec+0x20>
   140005930:	0f b7 42 14          	movzwl 0x14(%rdx),%eax
   140005934:	44 0f b7 42 06       	movzwl 0x6(%rdx),%r8d
   140005939:	48 8d 44 02 18       	lea    0x18(%rdx,%rax,1),%rax
   14000593e:	66 45 85 c0          	test   %r8w,%r8w
   140005942:	74 34                	je     140005978 <_FindPESectionExec+0x78>
   140005944:	41 8d 50 ff          	lea    -0x1(%r8),%edx
   140005948:	48 8d 14 92          	lea    (%rdx,%rdx,4),%rdx
   14000594c:	48 8d 54 d0 28       	lea    0x28(%rax,%rdx,8),%rdx
   140005951:	66 66 2e 0f 1f 84 00 	data16 cs nopw 0x0(%rax,%rax,1)
   140005958:	00 00 00 00 
   14000595c:	0f 1f 40 00          	nopl   0x0(%rax)
   140005960:	f6 40 27 20          	testb  $0x20,0x27(%rax)
   140005964:	74 09                	je     14000596f <_FindPESectionExec+0x6f>
   140005966:	48 85 c9             	test   %rcx,%rcx
   140005969:	74 b5                	je     140005920 <_FindPESectionExec+0x20>
   14000596b:	48 83 e9 01          	sub    $0x1,%rcx
   14000596f:	48 83 c0 28          	add    $0x28,%rax
   140005973:	48 39 c2             	cmp    %rax,%rdx
   140005976:	75 e8                	jne    140005960 <_FindPESectionExec+0x60>
   140005978:	31 c0                	xor    %eax,%eax
   14000597a:	c3                   	ret
   14000597b:	0f 1f 44 00 00       	nopl   0x0(%rax,%rax,1)

0000000140005980 <_GetPEImageBase>:
   140005980:	48 8b 05 99 43 00 00 	mov    0x4399(%rip),%rax        # 140009d20 <.refptr.__ImageBase>
   140005987:	31 d2                	xor    %edx,%edx
   140005989:	66 81 38 4d 5a       	cmpw   $0x5a4d,(%rax)
   14000598e:	75 0f                	jne    14000599f <_GetPEImageBase+0x1f>
   140005990:	48 63 48 3c          	movslq 0x3c(%rax),%rcx
   140005994:	48 01 c1             	add    %rax,%rcx
   140005997:	81 39 50 45 00 00    	cmpl   $0x4550,(%rcx)
   14000599d:	74 09                	je     1400059a8 <_GetPEImageBase+0x28>
   14000599f:	48 89 d0             	mov    %rdx,%rax
   1400059a2:	c3                   	ret
   1400059a3:	0f 1f 44 00 00       	nopl   0x0(%rax,%rax,1)
   1400059a8:	66 81 79 18 0b 02    	cmpw   $0x20b,0x18(%rcx)
   1400059ae:	48 0f 44 d0          	cmove  %rax,%rdx
   1400059b2:	48 89 d0             	mov    %rdx,%rax
   1400059b5:	c3                   	ret
   1400059b6:	66 2e 0f 1f 84 00 00 	cs nopw 0x0(%rax,%rax,1)
   1400059bd:	00 00 00 

00000001400059c0 <_IsNonwritableInCurrentImage>:
   1400059c0:	48 8b 15 59 43 00 00 	mov    0x4359(%rip),%rdx        # 140009d20 <.refptr.__ImageBase>
   1400059c7:	31 c0                	xor    %eax,%eax
   1400059c9:	66 81 3a 4d 5a       	cmpw   $0x5a4d,(%rdx)
   1400059ce:	75 10                	jne    1400059e0 <_IsNonwritableInCurrentImage+0x20>
   1400059d0:	4c 63 42 3c          	movslq 0x3c(%rdx),%r8
   1400059d4:	49 01 d0             	add    %rdx,%r8
   1400059d7:	41 81 38 50 45 00 00 	cmpl   $0x4550,(%r8)
   1400059de:	74 08                	je     1400059e8 <_IsNonwritableInCurrentImage+0x28>
   1400059e0:	c3                   	ret
   1400059e1:	0f 1f 80 00 00 00 00 	nopl   0x0(%rax)
   1400059e8:	66 41 81 78 18 0b 02 	cmpw   $0x20b,0x18(%r8)
   1400059ef:	75 ef                	jne    1400059e0 <_IsNonwritableInCurrentImage+0x20>
   1400059f1:	48 29 d1             	sub    %rdx,%rcx
   1400059f4:	45 0f b7 48 06       	movzwl 0x6(%r8),%r9d
   1400059f9:	41 0f b7 50 14       	movzwl 0x14(%r8),%edx
   1400059fe:	49 8d 54 10 18       	lea    0x18(%r8,%rdx,1),%rdx
   140005a03:	66 45 85 c9          	test   %r9w,%r9w
   140005a07:	74 d7                	je     1400059e0 <_IsNonwritableInCurrentImage+0x20>
   140005a09:	41 8d 41 ff          	lea    -0x1(%r9),%eax
   140005a0d:	48 8d 04 80          	lea    (%rax,%rax,4),%rax
   140005a11:	4c 8d 4c c2 28       	lea    0x28(%rdx,%rax,8),%r9
   140005a16:	66 2e 0f 1f 84 00 00 	cs nopw 0x0(%rax,%rax,1)
   140005a1d:	00 00 00 
   140005a20:	44 8b 42 0c          	mov    0xc(%rdx),%r8d
   140005a24:	4c 89 c0             	mov    %r8,%rax
   140005a27:	4c 39 c1             	cmp    %r8,%rcx
   140005a2a:	72 08                	jb     140005a34 <_IsNonwritableInCurrentImage+0x74>
   140005a2c:	03 42 08             	add    0x8(%rdx),%eax
   140005a2f:	48 39 c1             	cmp    %rax,%rcx
   140005a32:	72 0c                	jb     140005a40 <_IsNonwritableInCurrentImage+0x80>
   140005a34:	48 83 c2 28          	add    $0x28,%rdx
   140005a38:	49 39 d1             	cmp    %rdx,%r9
   140005a3b:	75 e3                	jne    140005a20 <_IsNonwritableInCurrentImage+0x60>
   140005a3d:	31 c0                	xor    %eax,%eax
   140005a3f:	c3                   	ret
   140005a40:	8b 42 24             	mov    0x24(%rdx),%eax
   140005a43:	f7 d0                	not    %eax
   140005a45:	c1 e8 1f             	shr    $0x1f,%eax
   140005a48:	c3                   	ret
   140005a49:	0f 1f 80 00 00 00 00 	nopl   0x0(%rax)

0000000140005a50 <__mingw_enum_import_library_names>:
   140005a50:	4c 8b 1d c9 42 00 00 	mov    0x42c9(%rip),%r11        # 140009d20 <.refptr.__ImageBase>
   140005a57:	45 31 c9             	xor    %r9d,%r9d
   140005a5a:	66 41 81 3b 4d 5a    	cmpw   $0x5a4d,(%r11)
   140005a60:	75 10                	jne    140005a72 <__mingw_enum_import_library_names+0x22>
   140005a62:	4d 63 43 3c          	movslq 0x3c(%r11),%r8
   140005a66:	4d 01 d8             	add    %r11,%r8
   140005a69:	41 81 38 50 45 00 00 	cmpl   $0x4550,(%r8)
   140005a70:	74 0e                	je     140005a80 <__mingw_enum_import_library_names+0x30>
   140005a72:	4c 89 c8             	mov    %r9,%rax
   140005a75:	c3                   	ret
   140005a76:	66 2e 0f 1f 84 00 00 	cs nopw 0x0(%rax,%rax,1)
   140005a7d:	00 00 00 
   140005a80:	66 41 81 78 18 0b 02 	cmpw   $0x20b,0x18(%r8)
   140005a87:	75 e9                	jne    140005a72 <__mingw_enum_import_library_names+0x22>
   140005a89:	41 8b 80 90 00 00 00 	mov    0x90(%r8),%eax
   140005a90:	85 c0                	test   %eax,%eax
   140005a92:	74 de                	je     140005a72 <__mingw_enum_import_library_names+0x22>
   140005a94:	41 0f b7 50 14       	movzwl 0x14(%r8),%edx
   140005a99:	45 0f b7 50 06       	movzwl 0x6(%r8),%r10d
   140005a9e:	49 8d 54 10 18       	lea    0x18(%r8,%rdx,1),%rdx
   140005aa3:	66 45 85 d2          	test   %r10w,%r10w
   140005aa7:	74 c9                	je     140005a72 <__mingw_enum_import_library_names+0x22>
   140005aa9:	45 8d 42 ff          	lea    -0x1(%r10),%r8d
   140005aad:	4f 8d 04 80          	lea    (%r8,%r8,4),%r8
   140005ab1:	4e 8d 54 c2 28       	lea    0x28(%rdx,%r8,8),%r10
   140005ab6:	66 2e 0f 1f 84 00 00 	cs nopw 0x0(%rax,%rax,1)
   140005abd:	00 00 00 
   140005ac0:	44 8b 4a 0c          	mov    0xc(%rdx),%r9d
   140005ac4:	4d 89 c8             	mov    %r9,%r8
   140005ac7:	4c 39 c8             	cmp    %r9,%rax
   140005aca:	72 09                	jb     140005ad5 <__mingw_enum_import_library_names+0x85>
   140005acc:	44 03 42 08          	add    0x8(%rdx),%r8d
   140005ad0:	4c 39 c0             	cmp    %r8,%rax
   140005ad3:	72 13                	jb     140005ae8 <__mingw_enum_import_library_names+0x98>
   140005ad5:	48 83 c2 28          	add    $0x28,%rdx
   140005ad9:	49 39 d2             	cmp    %rdx,%r10
   140005adc:	75 e2                	jne    140005ac0 <__mingw_enum_import_library_names+0x70>
   140005ade:	45 31 c9             	xor    %r9d,%r9d
   140005ae1:	4c 89 c8             	mov    %r9,%rax
   140005ae4:	c3                   	ret
   140005ae5:	0f 1f 00             	nopl   (%rax)
   140005ae8:	4c 01 d8             	add    %r11,%rax
   140005aeb:	eb 0a                	jmp    140005af7 <__mingw_enum_import_library_names+0xa7>
   140005aed:	0f 1f 00             	nopl   (%rax)
   140005af0:	83 e9 01             	sub    $0x1,%ecx
   140005af3:	48 83 c0 14          	add    $0x14,%rax
   140005af7:	44 8b 40 04          	mov    0x4(%rax),%r8d
   140005afb:	45 85 c0             	test   %r8d,%r8d
   140005afe:	75 07                	jne    140005b07 <__mingw_enum_import_library_names+0xb7>
   140005b00:	8b 50 0c             	mov    0xc(%rax),%edx
   140005b03:	85 d2                	test   %edx,%edx
   140005b05:	74 d7                	je     140005ade <__mingw_enum_import_library_names+0x8e>
   140005b07:	85 c9                	test   %ecx,%ecx
   140005b09:	7f e5                	jg     140005af0 <__mingw_enum_import_library_names+0xa0>
   140005b0b:	44 8b 48 0c          	mov    0xc(%rax),%r9d
   140005b0f:	4d 01 d9             	add    %r11,%r9
   140005b12:	4c 89 c8             	mov    %r9,%rax
   140005b15:	c3                   	ret
   140005b16:	90                   	nop
   140005b17:	90                   	nop
   140005b18:	90                   	nop
   140005b19:	90                   	nop
   140005b1a:	90                   	nop
   140005b1b:	90                   	nop
   140005b1c:	90                   	nop
   140005b1d:	90                   	nop
   140005b1e:	90                   	nop
   140005b1f:	90                   	nop

0000000140005b20 <___chkstk_ms>:
   140005b20:	51                   	push   %rcx
   140005b21:	50                   	push   %rax
   140005b22:	48 3d 00 10 00 00    	cmp    $0x1000,%rax
   140005b28:	48 8d 4c 24 18       	lea    0x18(%rsp),%rcx
   140005b2d:	72 19                	jb     140005b48 <___chkstk_ms+0x28>
   140005b2f:	48 81 e9 00 10 00 00 	sub    $0x1000,%rcx
   140005b36:	48 83 09 00          	orq    $0x0,(%rcx)
   140005b3a:	48 2d 00 10 00 00    	sub    $0x1000,%rax
   140005b40:	48 3d 00 10 00 00    	cmp    $0x1000,%rax
   140005b46:	77 e7                	ja     140005b2f <___chkstk_ms+0xf>
   140005b48:	48 29 c1             	sub    %rax,%rcx
   140005b4b:	48 83 09 00          	orq    $0x0,(%rcx)
   140005b4f:	58                   	pop    %rax
   140005b50:	59                   	pop    %rcx
   140005b51:	c3                   	ret
   140005b52:	90                   	nop
   140005b53:	90                   	nop
   140005b54:	90                   	nop
   140005b55:	90                   	nop
   140005b56:	90                   	nop
   140005b57:	90                   	nop
   140005b58:	90                   	nop
   140005b59:	90                   	nop
   140005b5a:	90                   	nop
   140005b5b:	90                   	nop
   140005b5c:	90                   	nop
   140005b5d:	90                   	nop
   140005b5e:	90                   	nop
   140005b5f:	90                   	nop

0000000140005b60 <usleep>:
   140005b60:	48 83 ec 28          	sub    $0x28,%rsp
   140005b64:	85 c9                	test   %ecx,%ecx
   140005b66:	75 08                	jne    140005b70 <usleep+0x10>
   140005b68:	31 c0                	xor    %eax,%eax
   140005b6a:	48 83 c4 28          	add    $0x28,%rsp
   140005b6e:	c3                   	ret
   140005b6f:	90                   	nop
   140005b70:	89 c9                	mov    %ecx,%ecx
   140005b72:	48 69 c9 d3 4d 62 10 	imul   $0x10624dd3,%rcx,%rcx
   140005b79:	48 c1 e9 26          	shr    $0x26,%rcx
   140005b7d:	ff 15 95 a7 00 00    	call   *0xa795(%rip)        # 140010318 <__imp_Sleep>
   140005b83:	31 c0                	xor    %eax,%eax
   140005b85:	48 83 c4 28          	add    $0x28,%rsp
   140005b89:	c3                   	ret
   140005b8a:	90                   	nop
   140005b8b:	90                   	nop
   140005b8c:	90                   	nop
   140005b8d:	90                   	nop
   140005b8e:	90                   	nop
   140005b8f:	90                   	nop

0000000140005b90 <vfprintf>:
   140005b90:	48 83 ec 38          	sub    $0x38,%rsp
   140005b94:	45 31 c9             	xor    %r9d,%r9d
   140005b97:	4c 89 44 24 20       	mov    %r8,0x20(%rsp)
   140005b9c:	49 89 d0             	mov    %rdx,%r8
   140005b9f:	48 89 ca             	mov    %rcx,%rdx
   140005ba2:	b9 24 00 00 00       	mov    $0x24,%ecx
   140005ba7:	e8 fc 01 00 00       	call   140005da8 <__stdio_common_vfprintf>
   140005bac:	48 83 c4 38          	add    $0x38,%rsp
   140005bb0:	c3                   	ret
   140005bb1:	90                   	nop
   140005bb2:	90                   	nop
   140005bb3:	90                   	nop
   140005bb4:	90                   	nop
   140005bb5:	90                   	nop
   140005bb6:	90                   	nop
   140005bb7:	90                   	nop
   140005bb8:	90                   	nop
   140005bb9:	90                   	nop
   140005bba:	90                   	nop
   140005bbb:	90                   	nop
   140005bbc:	90                   	nop
   140005bbd:	90                   	nop
   140005bbe:	90                   	nop
   140005bbf:	90                   	nop

0000000140005bc0 <sprintf>:
   140005bc0:	48 83 ec 48          	sub    $0x48,%rsp
   140005bc4:	48 8d 44 24 60       	lea    0x60(%rsp),%rax
   140005bc9:	4c 89 44 24 60       	mov    %r8,0x60(%rsp)
   140005bce:	49 c7 c0 ff ff ff ff 	mov    $0xffffffffffffffff,%r8
   140005bd5:	48 89 44 24 28       	mov    %rax,0x28(%rsp)
   140005bda:	48 c7 44 24 20 00 00 	movq   $0x0,0x20(%rsp)
   140005be1:	00 00 
   140005be3:	4c 89 4c 24 68       	mov    %r9,0x68(%rsp)
   140005be8:	49 89 d1             	mov    %rdx,%r9
   140005beb:	48 89 ca             	mov    %rcx,%rdx
   140005bee:	b9 26 00 00 00       	mov    $0x26,%ecx
   140005bf3:	48 89 44 24 38       	mov    %rax,0x38(%rsp)
   140005bf8:	e8 b3 01 00 00       	call   140005db0 <__stdio_common_vsprintf>
   140005bfd:	48 83 c4 48          	add    $0x48,%rsp
   140005c01:	c3                   	ret
   140005c02:	90                   	nop
   140005c03:	90                   	nop
   140005c04:	90                   	nop
   140005c05:	90                   	nop
   140005c06:	90                   	nop
   140005c07:	90                   	nop
   140005c08:	90                   	nop
   140005c09:	90                   	nop
   140005c0a:	90                   	nop
   140005c0b:	90                   	nop
   140005c0c:	90                   	nop
   140005c0d:	90                   	nop
   140005c0e:	90                   	nop
   140005c0f:	90                   	nop

0000000140005c10 <snprintf>:
   140005c10:	48 83 ec 48          	sub    $0x48,%rsp
   140005c14:	48 8d 44 24 68       	lea    0x68(%rsp),%rax
   140005c19:	4c 89 4c 24 68       	mov    %r9,0x68(%rsp)
   140005c1e:	4d 89 c1             	mov    %r8,%r9
   140005c21:	49 89 d0             	mov    %rdx,%r8
   140005c24:	48 89 44 24 28       	mov    %rax,0x28(%rsp)
   140005c29:	48 89 ca             	mov    %rcx,%rdx
   140005c2c:	b9 26 00 00 00       	mov    $0x26,%ecx
   140005c31:	48 c7 44 24 20 00 00 	movq   $0x0,0x20(%rsp)
   140005c38:	00 00 
   140005c3a:	48 89 44 24 38       	mov    %rax,0x38(%rsp)
   140005c3f:	e8 6c 01 00 00       	call   140005db0 <__stdio_common_vsprintf>
   140005c44:	48 83 c4 48          	add    $0x48,%rsp
   140005c48:	c3                   	ret
   140005c49:	90                   	nop
   140005c4a:	90                   	nop
   140005c4b:	90                   	nop
   140005c4c:	90                   	nop
   140005c4d:	90                   	nop
   140005c4e:	90                   	nop
   140005c4f:	90                   	nop

0000000140005c50 <printf>:
   140005c50:	56                   	push   %rsi
   140005c51:	53                   	push   %rbx
   140005c52:	48 83 ec 48          	sub    $0x48,%rsp
   140005c56:	48 89 cb             	mov    %rcx,%rbx
   140005c59:	48 8d 74 24 68       	lea    0x68(%rsp),%rsi
   140005c5e:	b9 01 00 00 00       	mov    $0x1,%ecx
   140005c63:	48 89 54 24 68       	mov    %rdx,0x68(%rsp)
   140005c68:	4c 89 44 24 70       	mov    %r8,0x70(%rsp)
   140005c6d:	4c 89 4c 24 78       	mov    %r9,0x78(%rsp)
   140005c72:	48 89 74 24 38       	mov    %rsi,0x38(%rsp)
   140005c77:	e8 14 01 00 00       	call   140005d90 <__acrt_iob_func>
   140005c7c:	48 89 74 24 20       	mov    %rsi,0x20(%rsp)
   140005c81:	45 31 c9             	xor    %r9d,%r9d
   140005c84:	49 89 d8             	mov    %rbx,%r8
   140005c87:	48 89 c2             	mov    %rax,%rdx
   140005c8a:	b9 24 00 00 00       	mov    $0x24,%ecx
   140005c8f:	e8 14 01 00 00       	call   140005da8 <__stdio_common_vfprintf>
   140005c94:	48 83 c4 48          	add    $0x48,%rsp
   140005c98:	5b                   	pop    %rbx
   140005c99:	5e                   	pop    %rsi
   140005c9a:	c3                   	ret
   140005c9b:	90                   	nop
   140005c9c:	90                   	nop
   140005c9d:	90                   	nop
   140005c9e:	90                   	nop
   140005c9f:	90                   	nop

0000000140005ca0 <fprintf>:
   140005ca0:	48 83 ec 48          	sub    $0x48,%rsp
   140005ca4:	48 8d 44 24 60       	lea    0x60(%rsp),%rax
   140005ca9:	4c 89 44 24 60       	mov    %r8,0x60(%rsp)
   140005cae:	49 89 d0             	mov    %rdx,%r8
   140005cb1:	48 89 ca             	mov    %rcx,%rdx
   140005cb4:	48 89 44 24 20       	mov    %rax,0x20(%rsp)
   140005cb9:	b9 24 00 00 00       	mov    $0x24,%ecx
   140005cbe:	4c 89 4c 24 68       	mov    %r9,0x68(%rsp)
   140005cc3:	45 31 c9             	xor    %r9d,%r9d
   140005cc6:	48 89 44 24 38       	mov    %rax,0x38(%rsp)
   140005ccb:	e8 d8 00 00 00       	call   140005da8 <__stdio_common_vfprintf>
   140005cd0:	48 83 c4 48          	add    $0x48,%rsp
   140005cd4:	c3                   	ret
   140005cd5:	90                   	nop
   140005cd6:	90                   	nop
   140005cd7:	90                   	nop
   140005cd8:	90                   	nop
   140005cd9:	90                   	nop
   140005cda:	90                   	nop
   140005cdb:	90                   	nop
   140005cdc:	90                   	nop
   140005cdd:	90                   	nop
   140005cde:	90                   	nop
   140005cdf:	90                   	nop

0000000140005ce0 <__p___initenv>:
   140005ce0:	48 8b 05 79 40 00 00 	mov    0x4079(%rip),%rax        # 140009d60 <.refptr.__imp___initenv>
   140005ce7:	48 8b 00             	mov    (%rax),%rax
   140005cea:	c3                   	ret
   140005ceb:	90                   	nop
   140005cec:	90                   	nop
   140005ced:	90                   	nop
   140005cee:	90                   	nop
   140005cef:	90                   	nop

0000000140005cf0 <_amsg_exit>:
   140005cf0:	53                   	push   %rbx
   140005cf1:	48 83 ec 20          	sub    $0x20,%rsp
   140005cf5:	89 cb                	mov    %ecx,%ebx
   140005cf7:	b9 02 00 00 00       	mov    $0x2,%ecx
   140005cfc:	e8 8f 00 00 00       	call   140005d90 <__acrt_iob_func>
   140005d01:	41 89 d8             	mov    %ebx,%r8d
   140005d04:	48 8d 15 c5 3f 00 00 	lea    0x3fc5(%rip),%rdx        # 140009cd0 <.rdata>
   140005d0b:	48 89 c1             	mov    %rax,%rcx
   140005d0e:	e8 8d ff ff ff       	call   140005ca0 <fprintf>
   140005d13:	b9 ff 00 00 00       	mov    $0xff,%ecx
   140005d18:	e8 0b 01 00 00       	call   140005e28 <_exit>
   140005d1d:	90                   	nop
   140005d1e:	90                   	nop
   140005d1f:	90                   	nop

0000000140005d20 <__getmainargs>:
   140005d20:	55                   	push   %rbp
   140005d21:	57                   	push   %rdi
   140005d22:	56                   	push   %rsi
   140005d23:	53                   	push   %rbx
   140005d24:	48 83 ec 28          	sub    $0x28,%rsp
   140005d28:	44 89 cd             	mov    %r9d,%ebp
   140005d2b:	48 89 d6             	mov    %rdx,%rsi
   140005d2e:	4c 89 c3             	mov    %r8,%rbx
   140005d31:	48 89 cf             	mov    %rcx,%rdi
   140005d34:	e8 f7 00 00 00       	call   140005e30 <_initialize_narrow_environment>
   140005d39:	83 fd 01             	cmp    $0x1,%ebp
   140005d3c:	b9 01 00 00 00       	mov    $0x1,%ecx
   140005d41:	83 d9 ff             	sbb    $0xffffffff,%ecx
   140005d44:	e8 cf 00 00 00       	call   140005e18 <_configure_narrow_argv>
   140005d49:	e8 b2 00 00 00       	call   140005e00 <__p___argc>
   140005d4e:	8b 00                	mov    (%rax),%eax
   140005d50:	89 07                	mov    %eax,(%rdi)
   140005d52:	e8 b1 00 00 00       	call   140005e08 <__p___argv>
   140005d57:	48 8b 00             	mov    (%rax),%rax
   140005d5a:	48 89 06             	mov    %rax,(%rsi)
   140005d5d:	e8 4e 01 00 00       	call   140005eb0 <__p__environ>
   140005d62:	48 8b 00             	mov    (%rax),%rax
   140005d65:	48 89 03             	mov    %rax,(%rbx)
   140005d68:	48 8b 44 24 70       	mov    0x70(%rsp),%rax
   140005d6d:	8b 08                	mov    (%rax),%ecx
   140005d6f:	e8 1c 01 00 00       	call   140005e90 <_set_new_mode>
   140005d74:	31 c0                	xor    %eax,%eax
   140005d76:	48 83 c4 28          	add    $0x28,%rsp
   140005d7a:	5b                   	pop    %rbx
   140005d7b:	5e                   	pop    %rsi
   140005d7c:	5f                   	pop    %rdi
   140005d7d:	5d                   	pop    %rbp
   140005d7e:	c3                   	ret
   140005d7f:	90                   	nop

0000000140005d80 <strlen>:
   140005d80:	ff 25 fa a6 00 00    	jmp    *0xa6fa(%rip)        # 140010480 <__imp_strlen>
   140005d86:	90                   	nop
   140005d87:	90                   	nop

0000000140005d88 <strncmp>:
   140005d88:	ff 25 fa a6 00 00    	jmp    *0xa6fa(%rip)        # 140010488 <__imp_strncmp>
   140005d8e:	90                   	nop
   140005d8f:	90                   	nop

0000000140005d90 <__acrt_iob_func>:
   140005d90:	ff 25 7a a6 00 00    	jmp    *0xa67a(%rip)        # 140010410 <__imp___acrt_iob_func>
   140005d96:	90                   	nop
   140005d97:	90                   	nop

0000000140005d98 <__p__commode>:
   140005d98:	ff 25 7a a6 00 00    	jmp    *0xa67a(%rip)        # 140010418 <__imp___p__commode>
   140005d9e:	90                   	nop
   140005d9f:	90                   	nop

0000000140005da0 <__p__fmode>:
   140005da0:	ff 25 7a a6 00 00    	jmp    *0xa67a(%rip)        # 140010420 <__imp___p__fmode>
   140005da6:	90                   	nop
   140005da7:	90                   	nop

0000000140005da8 <__stdio_common_vfprintf>:
   140005da8:	ff 25 7a a6 00 00    	jmp    *0xa67a(%rip)        # 140010428 <__imp___stdio_common_vfprintf>
   140005dae:	90                   	nop
   140005daf:	90                   	nop

0000000140005db0 <__stdio_common_vsprintf>:
   140005db0:	ff 25 7a a6 00 00    	jmp    *0xa67a(%rip)        # 140010430 <__imp___stdio_common_vsprintf>
   140005db6:	90                   	nop
   140005db7:	90                   	nop

0000000140005db8 <fclose>:
   140005db8:	ff 25 7a a6 00 00    	jmp    *0xa67a(%rip)        # 140010438 <__imp_fclose>
   140005dbe:	90                   	nop
   140005dbf:	90                   	nop

0000000140005dc0 <fopen>:
   140005dc0:	ff 25 7a a6 00 00    	jmp    *0xa67a(%rip)        # 140010440 <__imp_fopen>
   140005dc6:	90                   	nop
   140005dc7:	90                   	nop

0000000140005dc8 <fread>:
   140005dc8:	ff 25 7a a6 00 00    	jmp    *0xa67a(%rip)        # 140010448 <__imp_fread>
   140005dce:	90                   	nop
   140005dcf:	90                   	nop

0000000140005dd0 <fseek>:
   140005dd0:	ff 25 7a a6 00 00    	jmp    *0xa67a(%rip)        # 140010450 <__imp_fseek>
   140005dd6:	90                   	nop
   140005dd7:	90                   	nop

0000000140005dd8 <ftell>:
   140005dd8:	ff 25 7a a6 00 00    	jmp    *0xa67a(%rip)        # 140010458 <__imp_ftell>
   140005dde:	90                   	nop
   140005ddf:	90                   	nop

0000000140005de0 <fwrite>:
   140005de0:	ff 25 7a a6 00 00    	jmp    *0xa67a(%rip)        # 140010460 <__imp_fwrite>
   140005de6:	90                   	nop
   140005de7:	90                   	nop

0000000140005de8 <puts>:
   140005de8:	ff 25 7a a6 00 00    	jmp    *0xa67a(%rip)        # 140010468 <__imp_puts>
   140005dee:	90                   	nop
   140005def:	90                   	nop

0000000140005df0 <rewind>:
   140005df0:	ff 25 7a a6 00 00    	jmp    *0xa67a(%rip)        # 140010470 <__imp_rewind>
   140005df6:	90                   	nop
   140005df7:	90                   	nop
   140005df8:	0f 1f 84 00 00 00 00 	nopl   0x0(%rax,%rax,1)
   140005dff:	00 

0000000140005e00 <__p___argc>:
   140005e00:	ff 25 9a a5 00 00    	jmp    *0xa59a(%rip)        # 1400103a0 <__imp___p___argc>
   140005e06:	90                   	nop
   140005e07:	90                   	nop

0000000140005e08 <__p___argv>:
   140005e08:	ff 25 9a a5 00 00    	jmp    *0xa59a(%rip)        # 1400103a8 <__imp___p___argv>
   140005e0e:	90                   	nop
   140005e0f:	90                   	nop

0000000140005e10 <_cexit>:
   140005e10:	ff 25 9a a5 00 00    	jmp    *0xa59a(%rip)        # 1400103b0 <__imp__cexit>
   140005e16:	90                   	nop
   140005e17:	90                   	nop

0000000140005e18 <_configure_narrow_argv>:
   140005e18:	ff 25 9a a5 00 00    	jmp    *0xa59a(%rip)        # 1400103b8 <__imp__configure_narrow_argv>
   140005e1e:	90                   	nop
   140005e1f:	90                   	nop

0000000140005e20 <_crt_atexit>:
   140005e20:	ff 25 9a a5 00 00    	jmp    *0xa59a(%rip)        # 1400103c0 <__imp__crt_atexit>
   140005e26:	90                   	nop
   140005e27:	90                   	nop

0000000140005e28 <_exit>:
   140005e28:	ff 25 9a a5 00 00    	jmp    *0xa59a(%rip)        # 1400103c8 <__imp__exit>
   140005e2e:	90                   	nop
   140005e2f:	90                   	nop

0000000140005e30 <_initialize_narrow_environment>:
   140005e30:	ff 25 9a a5 00 00    	jmp    *0xa59a(%rip)        # 1400103d0 <__imp__initialize_narrow_environment>
   140005e36:	90                   	nop
   140005e37:	90                   	nop

0000000140005e38 <_initterm>:
   140005e38:	ff 25 9a a5 00 00    	jmp    *0xa59a(%rip)        # 1400103d8 <__imp__initterm>
   140005e3e:	90                   	nop
   140005e3f:	90                   	nop

0000000140005e40 <__set_app_type>:
   140005e40:	ff 25 9a a5 00 00    	jmp    *0xa59a(%rip)        # 1400103e0 <__imp___set_app_type>
   140005e46:	90                   	nop
   140005e47:	90                   	nop

0000000140005e48 <_set_invalid_parameter_handler>:
   140005e48:	ff 25 9a a5 00 00    	jmp    *0xa59a(%rip)        # 1400103e8 <__imp__set_invalid_parameter_handler>
   140005e4e:	90                   	nop
   140005e4f:	90                   	nop

0000000140005e50 <abort>:
   140005e50:	ff 25 9a a5 00 00    	jmp    *0xa59a(%rip)        # 1400103f0 <__imp_abort>
   140005e56:	90                   	nop
   140005e57:	90                   	nop

0000000140005e58 <exit>:
   140005e58:	ff 25 9a a5 00 00    	jmp    *0xa59a(%rip)        # 1400103f8 <__imp_exit>
   140005e5e:	90                   	nop
   140005e5f:	90                   	nop

0000000140005e60 <signal>:
   140005e60:	ff 25 9a a5 00 00    	jmp    *0xa59a(%rip)        # 140010400 <__imp_signal>
   140005e66:	90                   	nop
   140005e67:	90                   	nop
   140005e68:	0f 1f 84 00 00 00 00 	nopl   0x0(%rax,%rax,1)
   140005e6f:	00 

0000000140005e70 <__C_specific_handler>:
   140005e70:	ff 25 12 a5 00 00    	jmp    *0xa512(%rip)        # 140010388 <__imp___C_specific_handler>
   140005e76:	90                   	nop
   140005e77:	90                   	nop

0000000140005e78 <memcpy>:
   140005e78:	ff 25 12 a5 00 00    	jmp    *0xa512(%rip)        # 140010390 <__imp_memcpy>
   140005e7e:	90                   	nop
   140005e7f:	90                   	nop

0000000140005e80 <__setusermatherr>:
   140005e80:	ff 25 f2 a4 00 00    	jmp    *0xa4f2(%rip)        # 140010378 <__imp___setusermatherr>
   140005e86:	90                   	nop
   140005e87:	90                   	nop
   140005e88:	0f 1f 84 00 00 00 00 	nopl   0x0(%rax,%rax,1)
   140005e8f:	00 

0000000140005e90 <_set_new_mode>:
   140005e90:	ff 25 ba a4 00 00    	jmp    *0xa4ba(%rip)        # 140010350 <__imp__set_new_mode>
   140005e96:	90                   	nop
   140005e97:	90                   	nop

0000000140005e98 <calloc>:
   140005e98:	ff 25 ba a4 00 00    	jmp    *0xa4ba(%rip)        # 140010358 <__imp_calloc>
   140005e9e:	90                   	nop
   140005e9f:	90                   	nop

0000000140005ea0 <free>:
   140005ea0:	ff 25 ba a4 00 00    	jmp    *0xa4ba(%rip)        # 140010360 <__imp_free>
   140005ea6:	90                   	nop
   140005ea7:	90                   	nop

0000000140005ea8 <malloc>:
   140005ea8:	ff 25 ba a4 00 00    	jmp    *0xa4ba(%rip)        # 140010368 <__imp_malloc>
   140005eae:	90                   	nop
   140005eaf:	90                   	nop

0000000140005eb0 <__p__environ>:
   140005eb0:	ff 25 8a a4 00 00    	jmp    *0xa48a(%rip)        # 140010340 <__imp___p__environ>
   140005eb6:	90                   	nop
   140005eb7:	90                   	nop
   140005eb8:	0f 1f 84 00 00 00 00 	nopl   0x0(%rax,%rax,1)
   140005ebf:	00 

0000000140005ec0 <VirtualQuery>:
   140005ec0:	ff 25 6a a4 00 00    	jmp    *0xa46a(%rip)        # 140010330 <__imp_VirtualQuery>
   140005ec6:	90                   	nop
   140005ec7:	90                   	nop

0000000140005ec8 <VirtualProtect>:
   140005ec8:	ff 25 5a a4 00 00    	jmp    *0xa45a(%rip)        # 140010328 <__imp_VirtualProtect>
   140005ece:	90                   	nop
   140005ecf:	90                   	nop

0000000140005ed0 <TlsGetValue>:
   140005ed0:	ff 25 4a a4 00 00    	jmp    *0xa44a(%rip)        # 140010320 <__imp_TlsGetValue>
   140005ed6:	90                   	nop
   140005ed7:	90                   	nop

0000000140005ed8 <Sleep>:
   140005ed8:	ff 25 3a a4 00 00    	jmp    *0xa43a(%rip)        # 140010318 <__imp_Sleep>
   140005ede:	90                   	nop
   140005edf:	90                   	nop

0000000140005ee0 <SetUnhandledExceptionFilter>:
   140005ee0:	ff 25 2a a4 00 00    	jmp    *0xa42a(%rip)        # 140010310 <__imp_SetUnhandledExceptionFilter>
   140005ee6:	90                   	nop
   140005ee7:	90                   	nop

0000000140005ee8 <LeaveCriticalSection>:
   140005ee8:	ff 25 1a a4 00 00    	jmp    *0xa41a(%rip)        # 140010308 <__imp_LeaveCriticalSection>
   140005eee:	90                   	nop
   140005eef:	90                   	nop

0000000140005ef0 <InitializeCriticalSection>:
   140005ef0:	ff 25 0a a4 00 00    	jmp    *0xa40a(%rip)        # 140010300 <__imp_InitializeCriticalSection>
   140005ef6:	90                   	nop
   140005ef7:	90                   	nop

0000000140005ef8 <GetLastError>:
   140005ef8:	ff 25 fa a3 00 00    	jmp    *0xa3fa(%rip)        # 1400102f8 <__imp_GetLastError>
   140005efe:	90                   	nop
   140005eff:	90                   	nop

0000000140005f00 <EnterCriticalSection>:
   140005f00:	ff 25 ea a3 00 00    	jmp    *0xa3ea(%rip)        # 1400102f0 <__imp_EnterCriticalSection>
   140005f06:	90                   	nop
   140005f07:	90                   	nop

0000000140005f08 <DeleteCriticalSection>:
   140005f08:	ff 25 da a3 00 00    	jmp    *0xa3da(%rip)        # 1400102e8 <__IAT_start__>
   140005f0e:	90                   	nop
   140005f0f:	90                   	nop

0000000140005f10 <pthread_create>:
   140005f10:	ff 25 82 a5 00 00    	jmp    *0xa582(%rip)        # 140010498 <__imp_pthread_create>
   140005f16:	90                   	nop
   140005f17:	90                   	nop
   140005f18:	0f 1f 84 00 00 00 00 	nopl   0x0(%rax,%rax,1)
   140005f1f:	00 

0000000140005f20 <TTF_Init>:
   140005f20:	ff 25 aa a5 00 00    	jmp    *0xa5aa(%rip)        # 1400104d0 <__imp_TTF_Init>
   140005f26:	90                   	nop
   140005f27:	90                   	nop

0000000140005f28 <SDL_CreateWindowAndRenderer>:
   140005f28:	ff 25 7a a5 00 00    	jmp    *0xa57a(%rip)        # 1400104a8 <__imp_SDL_CreateWindowAndRenderer>
   140005f2e:	90                   	nop
   140005f2f:	90                   	nop

0000000140005f30 <SDL_Delay>:
   140005f30:	ff 25 7a a5 00 00    	jmp    *0xa57a(%rip)        # 1400104b0 <__imp_SDL_Delay>
   140005f36:	90                   	nop
   140005f37:	90                   	nop

0000000140005f38 <SDL_Init>:
   140005f38:	ff 25 7a a5 00 00    	jmp    *0xa57a(%rip)        # 1400104b8 <__imp_SDL_Init>
   140005f3e:	90                   	nop
   140005f3f:	90                   	nop

0000000140005f40 <SDL_PollEvent>:
   140005f40:	ff 25 7a a5 00 00    	jmp    *0xa57a(%rip)        # 1400104c0 <__imp_SDL_PollEvent>
   140005f46:	90                   	nop
   140005f47:	90                   	nop
   140005f48:	0f 1f 84 00 00 00 00 	nopl   0x0(%rax,%rax,1)
   140005f4f:	00 

0000000140005f50 <register_frame_ctor>:
   140005f50:	e9 bb b4 ff ff       	jmp    140001410 <__gcc_register_frame>
   140005f55:	90                   	nop
   140005f56:	90                   	nop
   140005f57:	90                   	nop
   140005f58:	90                   	nop
   140005f59:	90                   	nop
   140005f5a:	90                   	nop
   140005f5b:	90                   	nop
   140005f5c:	90                   	nop
   140005f5d:	90                   	nop
   140005f5e:	90                   	nop
   140005f5f:	90                   	nop

0000000140005f60 <__CTOR_LIST__>:
   140005f60:	ff                   	(bad)
   140005f61:	ff                   	(bad)
   140005f62:	ff                   	(bad)
   140005f63:	ff                   	(bad)
   140005f64:	ff                   	(bad)
   140005f65:	ff                   	(bad)
   140005f66:	ff                   	(bad)
   140005f67:	ff                   	.byte 0xff

0000000140005f68 <.ctors.65535>:
   140005f68:	50                   	push   %rax
   140005f69:	5f                   	pop    %rdi
   140005f6a:	00 40 01             	add    %al,0x1(%rax)
	...

0000000140005f78 <__DTOR_LIST__>:
   140005f78:	ff                   	(bad)
   140005f79:	ff                   	(bad)
   140005f7a:	ff                   	(bad)
   140005f7b:	ff                   	(bad)
   140005f7c:	ff                   	(bad)
   140005f7d:	ff                   	(bad)
   140005f7e:	ff                   	(bad)
   140005f7f:	ff 00                	incl   (%rax)
   140005f81:	00 00                	add    %al,(%rax)
   140005f83:	00 00                	add    %al,(%rax)
   140005f85:	00 00                	add    %al,(%rax)
	...
